	.file	"segtree.cpp"
	.text
	.section	.text._ZnwmPv,"axG",@progbits,_ZnwmPv,comdat
	.weak	_ZnwmPv
	.type	_ZnwmPv, @function
_ZnwmPv:
.LFB40:
	.cfi_startproc
	pushq	%rbp
	.cfi_def_cfa_offset 16
	.cfi_offset 6, -16
	movq	%rsp, %rbp
	.cfi_def_cfa_register 6
	movq	%rdi, -8(%rbp)
	movq	%rsi, -16(%rbp)
	movq	-16(%rbp), %rax
	popq	%rbp
	.cfi_def_cfa 7, 8
	ret
	.cfi_endproc
.LFE40:
	.size	_ZnwmPv, .-_ZnwmPv
	.section	.text._ZSt17__size_to_integerm,"axG",@progbits,_ZSt17__size_to_integerm,comdat
	.weak	_ZSt17__size_to_integerm
	.type	_ZSt17__size_to_integerm, @function
_ZSt17__size_to_integerm:
.LFB655:
	.cfi_startproc
	pushq	%rbp
	.cfi_def_cfa_offset 16
	.cfi_offset 6, -16
	movq	%rsp, %rbp
	.cfi_def_cfa_register 6
	movq	%rdi, -8(%rbp)
	movq	-8(%rbp), %rax
	popq	%rbp
	.cfi_def_cfa 7, 8
	ret
	.cfi_endproc
.LFE655:
	.size	_ZSt17__size_to_integerm, .-_ZSt17__size_to_integerm
#APP
	.globl _ZSt21ios_base_library_initv
#NO_APP
	.section	.text._ZSt16__deque_buf_sizem,"axG",@progbits,_ZSt16__deque_buf_sizem,comdat
	.weak	_ZSt16__deque_buf_sizem
	.type	_ZSt16__deque_buf_sizem, @function
_ZSt16__deque_buf_sizem:
.LFB2344:
	.cfi_startproc
	pushq	%rbp
	.cfi_def_cfa_offset 16
	.cfi_offset 6, -16
	movq	%rsp, %rbp
	.cfi_def_cfa_register 6
	movq	%rdi, -8(%rbp)
	cmpq	$511, -8(%rbp)
	ja	.L6
	movl	$512, %eax
	movl	$0, %edx
	divq	-8(%rbp)
	jmp	.L8
.L6:
	movl	$1, %eax
.L8:
	popq	%rbp
	.cfi_def_cfa 7, 8
	ret
	.cfi_endproc
.LFE2344:
	.size	_ZSt16__deque_buf_sizem, .-_ZSt16__deque_buf_sizem
	.section	.text._ZN7segtree4nodeC2Ev,"axG",@progbits,_ZN7segtree4nodeC5Ev,comdat
	.align 2
	.weak	_ZN7segtree4nodeC2Ev
	.type	_ZN7segtree4nodeC2Ev, @function
_ZN7segtree4nodeC2Ev:
.LFB2609:
	.cfi_startproc
	pushq	%rbp
	.cfi_def_cfa_offset 16
	.cfi_offset 6, -16
	movq	%rsp, %rbp
	.cfi_def_cfa_register 6
	movq	%rdi, -8(%rbp)
	movq	-8(%rbp), %rax
	movl	$-1, 4(%rax)
	nop
	popq	%rbp
	.cfi_def_cfa 7, 8
	ret
	.cfi_endproc
.LFE2609:
	.size	_ZN7segtree4nodeC2Ev, .-_ZN7segtree4nodeC2Ev
	.weak	_ZN7segtree4nodeC1Ev
	.set	_ZN7segtree4nodeC1Ev,_ZN7segtree4nodeC2Ev
	.section	.text._ZN7segtree4joinEii,"axG",@progbits,_ZN7segtree4joinEii,comdat
	.align 2
	.weak	_ZN7segtree4joinEii
	.type	_ZN7segtree4joinEii, @function
_ZN7segtree4joinEii:
.LFB2607:
	.cfi_startproc
	pushq	%rbp
	.cfi_def_cfa_offset 16
	.cfi_offset 6, -16
	movq	%rsp, %rbp
	.cfi_def_cfa_register 6
	pushq	%rbx
	subq	$56, %rsp
	.cfi_offset 3, -24
	movq	%rdi, -56(%rbp)
	movl	%esi, -60(%rbp)
	movl	%edx, -64(%rbp)
	movq	%fs:40, %rax
	movq	%rax, -24(%rbp)
	xorl	%eax, %eax
	leaq	-48(%rbp), %rax
	movq	%rax, %rdi
	call	_ZN7segtree4nodeC1Ev
	movq	-56(%rbp), %rax
	leaq	8(%rax), %rdx
	movl	-60(%rbp), %eax
	cltq
	movq	%rax, %rsi
	movq	%rdx, %rdi
	call	_ZNSt6vectorIN7segtree4nodeESaIS1_EEixEm
	movl	(%rax), %eax
	movl	%eax, -48(%rbp)
	movl	-64(%rbp), %eax
	cmpl	-60(%rbp), %eax
	je	.L11
	movq	-56(%rbp), %rax
	leaq	8(%rax), %rdx
	movl	-64(%rbp), %eax
	cltq
	movq	%rax, %rsi
	movq	%rdx, %rdi
	call	_ZNSt6vectorIN7segtree4nodeESaIS1_EEixEm
	movl	(%rax), %edx
	movl	-48(%rbp), %eax
	addl	%edx, %eax
	movl	%eax, -48(%rbp)
.L11:
	movq	-56(%rbp), %rax
	leaq	8(%rax), %rdx
	movl	-60(%rbp), %eax
	cltq
	movq	%rax, %rsi
	movq	%rdx, %rdi
	call	_ZNSt6vectorIN7segtree4nodeESaIS1_EEixEm
	movl	16(%rax), %eax
	movl	%eax, -32(%rbp)
	movq	-56(%rbp), %rax
	leaq	8(%rax), %rdx
	movl	-64(%rbp), %eax
	cltq
	movq	%rax, %rsi
	movq	%rdx, %rdi
	call	_ZNSt6vectorIN7segtree4nodeESaIS1_EEixEm
	movl	20(%rax), %eax
	movl	%eax, -28(%rbp)
	movl	-60(%rbp), %eax
	movl	%eax, -40(%rbp)
	movl	-64(%rbp), %eax
	movl	%eax, -36(%rbp)
	movq	-56(%rbp), %rax
	addq	$8, %rax
	movq	%rax, %rdi
	call	_ZNKSt6vectorIN7segtree4nodeESaIS1_EE4sizeEv
	movl	%eax, %ebx
	movq	-56(%rbp), %rax
	leaq	8(%rax), %rdx
	movl	-60(%rbp), %eax
	cltq
	movq	%rax, %rsi
	movq	%rdx, %rdi
	call	_ZNSt6vectorIN7segtree4nodeESaIS1_EEixEm
	movl	%ebx, 4(%rax)
	movq	-56(%rbp), %rax
	addq	$8, %rax
	movq	%rax, %rdi
	call	_ZNKSt6vectorIN7segtree4nodeESaIS1_EE4sizeEv
	movl	%eax, %ebx
	movq	-56(%rbp), %rax
	leaq	8(%rax), %rdx
	movl	-64(%rbp), %eax
	cltq
	movq	%rax, %rsi
	movq	%rdx, %rdi
	call	_ZNSt6vectorIN7segtree4nodeESaIS1_EEixEm
	movl	%ebx, 4(%rax)
	movq	-56(%rbp), %rax
	leaq	8(%rax), %rdx
	leaq	-48(%rbp), %rax
	movq	%rax, %rsi
	movq	%rdx, %rdi
	call	_ZNSt6vectorIN7segtree4nodeESaIS1_EE9push_backERKS1_
	nop
	movq	-24(%rbp), %rax
	subq	%fs:40, %rax
	je	.L12
	call	__stack_chk_fail@PLT
.L12:
	movq	-8(%rbp), %rbx
	leave
	.cfi_def_cfa 7, 8
	ret
	.cfi_endproc
.LFE2607:
	.size	_ZN7segtree4joinEii, .-_ZN7segtree4joinEii
	.section	.text._ZN7segtree8on_rangeEiiii,"axG",@progbits,_ZN7segtree8on_rangeEiiii,comdat
	.align 2
	.weak	_ZN7segtree8on_rangeEiiii
	.type	_ZN7segtree8on_rangeEiiii, @function
_ZN7segtree8on_rangeEiiii:
.LFB2611:
	.cfi_startproc
	pushq	%rbp
	.cfi_def_cfa_offset 16
	.cfi_offset 6, -16
	movq	%rsp, %rbp
	.cfi_def_cfa_register 6
	movq	%rdi, -8(%rbp)
	movl	%esi, -12(%rbp)
	movl	%edx, -16(%rbp)
	movl	%ecx, -20(%rbp)
	movl	%r8d, -24(%rbp)
	movl	-16(%rbp), %eax
	cmpl	-24(%rbp), %eax
	jge	.L14
	movl	-16(%rbp), %edx
	jmp	.L15
.L14:
	movl	-24(%rbp), %edx
.L15:
	movl	-12(%rbp), %eax
	cmpl	-20(%rbp), %eax
	jle	.L16
	movl	-12(%rbp), %eax
	jmp	.L17
.L16:
	movl	-20(%rbp), %eax
.L17:
	cmpl	%eax, %edx
	setg	%al
	popq	%rbp
	.cfi_def_cfa 7, 8
	ret
	.cfi_endproc
.LFE2611:
	.size	_ZN7segtree8on_rangeEiiii, .-_ZN7segtree8on_rangeEiiii
	.section	.text._ZN7segtree8in_rangeEiiii,"axG",@progbits,_ZN7segtree8in_rangeEiiii,comdat
	.align 2
	.weak	_ZN7segtree8in_rangeEiiii
	.type	_ZN7segtree8in_rangeEiiii, @function
_ZN7segtree8in_rangeEiiii:
.LFB2612:
	.cfi_startproc
	pushq	%rbp
	.cfi_def_cfa_offset 16
	.cfi_offset 6, -16
	movq	%rsp, %rbp
	.cfi_def_cfa_register 6
	movq	%rdi, -8(%rbp)
	movl	%esi, -12(%rbp)
	movl	%edx, -16(%rbp)
	movl	%ecx, -20(%rbp)
	movl	%r8d, -24(%rbp)
	movl	-12(%rbp), %eax
	cmpl	-20(%rbp), %eax
	jl	.L20
	movl	-16(%rbp), %eax
	cmpl	-24(%rbp), %eax
	jg	.L20
	movl	$1, %eax
	jmp	.L21
.L20:
	movl	$0, %eax
.L21:
	popq	%rbp
	.cfi_def_cfa 7, 8
	ret
	.cfi_endproc
.LFE2612:
	.size	_ZN7segtree8in_rangeEiiii, .-_ZN7segtree8in_rangeEiiii
	.section	.text._ZNSt12_Vector_baseIN7segtree4nodeESaIS1_EE12_Vector_implD2Ev,"axG",@progbits,_ZNSt12_Vector_baseIN7segtree4nodeESaIS1_EE12_Vector_implD5Ev,comdat
	.align 2
	.weak	_ZNSt12_Vector_baseIN7segtree4nodeESaIS1_EE12_Vector_implD2Ev
	.type	_ZNSt12_Vector_baseIN7segtree4nodeESaIS1_EE12_Vector_implD2Ev, @function
_ZNSt12_Vector_baseIN7segtree4nodeESaIS1_EE12_Vector_implD2Ev:
.LFB2618:
	.cfi_startproc
	pushq	%rbp
	.cfi_def_cfa_offset 16
	.cfi_offset 6, -16
	movq	%rsp, %rbp
	.cfi_def_cfa_register 6
	subq	$32, %rsp
	movq	%rdi, -24(%rbp)
	movq	-24(%rbp), %rax
	movq	%rax, -8(%rbp)
	movq	-8(%rbp), %rax
	movq	%rax, %rdi
	call	_ZNSt15__new_allocatorIN7segtree4nodeEED2Ev
	nop
	nop
	leave
	.cfi_def_cfa 7, 8
	ret
	.cfi_endproc
.LFE2618:
	.size	_ZNSt12_Vector_baseIN7segtree4nodeESaIS1_EE12_Vector_implD2Ev, .-_ZNSt12_Vector_baseIN7segtree4nodeESaIS1_EE12_Vector_implD2Ev
	.weak	_ZNSt12_Vector_baseIN7segtree4nodeESaIS1_EE12_Vector_implD1Ev
	.set	_ZNSt12_Vector_baseIN7segtree4nodeESaIS1_EE12_Vector_implD1Ev,_ZNSt12_Vector_baseIN7segtree4nodeESaIS1_EE12_Vector_implD2Ev
	.section	.text._ZNSt12_Vector_baseIN7segtree4nodeESaIS1_EEC2Ev,"axG",@progbits,_ZNSt12_Vector_baseIN7segtree4nodeESaIS1_EEC5Ev,comdat
	.align 2
	.weak	_ZNSt12_Vector_baseIN7segtree4nodeESaIS1_EEC2Ev
	.type	_ZNSt12_Vector_baseIN7segtree4nodeESaIS1_EEC2Ev, @function
_ZNSt12_Vector_baseIN7segtree4nodeESaIS1_EEC2Ev:
.LFB2620:
	.cfi_startproc
	pushq	%rbp
	.cfi_def_cfa_offset 16
	.cfi_offset 6, -16
	movq	%rsp, %rbp
	.cfi_def_cfa_register 6
	subq	$16, %rsp
	movq	%rdi, -8(%rbp)
	movq	-8(%rbp), %rax
	movq	%rax, %rdi
	call	_ZNSt12_Vector_baseIN7segtree4nodeESaIS1_EE12_Vector_implC1Ev
	nop
	leave
	.cfi_def_cfa 7, 8
	ret
	.cfi_endproc
.LFE2620:
	.size	_ZNSt12_Vector_baseIN7segtree4nodeESaIS1_EEC2Ev, .-_ZNSt12_Vector_baseIN7segtree4nodeESaIS1_EEC2Ev
	.weak	_ZNSt12_Vector_baseIN7segtree4nodeESaIS1_EEC1Ev
	.set	_ZNSt12_Vector_baseIN7segtree4nodeESaIS1_EEC1Ev,_ZNSt12_Vector_baseIN7segtree4nodeESaIS1_EEC2Ev
	.section	.text._ZNSt6vectorIN7segtree4nodeESaIS1_EEC2Ev,"axG",@progbits,_ZNSt6vectorIN7segtree4nodeESaIS1_EEC5Ev,comdat
	.align 2
	.weak	_ZNSt6vectorIN7segtree4nodeESaIS1_EEC2Ev
	.type	_ZNSt6vectorIN7segtree4nodeESaIS1_EEC2Ev, @function
_ZNSt6vectorIN7segtree4nodeESaIS1_EEC2Ev:
.LFB2622:
	.cfi_startproc
	pushq	%rbp
	.cfi_def_cfa_offset 16
	.cfi_offset 6, -16
	movq	%rsp, %rbp
	.cfi_def_cfa_register 6
	subq	$16, %rsp
	movq	%rdi, -8(%rbp)
	movq	-8(%rbp), %rax
	movq	%rax, %rdi
	call	_ZNSt12_Vector_baseIN7segtree4nodeESaIS1_EEC2Ev
	nop
	leave
	.cfi_def_cfa 7, 8
	ret
	.cfi_endproc
.LFE2622:
	.size	_ZNSt6vectorIN7segtree4nodeESaIS1_EEC2Ev, .-_ZNSt6vectorIN7segtree4nodeESaIS1_EEC2Ev
	.weak	_ZNSt6vectorIN7segtree4nodeESaIS1_EEC1Ev
	.set	_ZNSt6vectorIN7segtree4nodeESaIS1_EEC1Ev,_ZNSt6vectorIN7segtree4nodeESaIS1_EEC2Ev
	.section	.text._ZN7segtreeC2ESt6vectorIiSaIiEE,"axG",@progbits,_ZN7segtreeC5ESt6vectorIiSaIiEE,comdat
	.align 2
	.weak	_ZN7segtreeC2ESt6vectorIiSaIiEE
	.type	_ZN7segtreeC2ESt6vectorIiSaIiEE, @function
_ZN7segtreeC2ESt6vectorIiSaIiEE:
.LFB2624:
	.cfi_startproc
	.cfi_personality 0x9b,DW.ref.__gxx_personality_v0
	.cfi_lsda 0x1b,.LLSDA2624
	pushq	%rbp
	.cfi_def_cfa_offset 16
	.cfi_offset 6, -16
	movq	%rsp, %rbp
	.cfi_def_cfa_register 6
	pushq	%rbx
	subq	$88, %rsp
	.cfi_offset 3, -24
	movq	%rdi, -88(%rbp)
	movq	%rsi, -96(%rbp)
	movq	%fs:40, %rax
	movq	%rax, -24(%rbp)
	xorl	%eax, %eax
	movq	-88(%rbp), %rax
	addq	$8, %rax
	movq	%rax, %rdi
	call	_ZNSt6vectorIN7segtree4nodeESaIS1_EEC1Ev
	movq	-96(%rbp), %rax
	movq	%rax, %rdi
	call	_ZNKSt6vectorIiSaIiEE4sizeEv
	movl	%eax, %edx
	movq	-88(%rbp), %rax
	movl	%edx, (%rax)
	movq	-88(%rbp), %rax
	leaq	8(%rax), %rdx
	movq	-88(%rbp), %rax
	movl	(%rax), %eax
	addl	%eax, %eax
	cltq
	movq	%rax, %rsi
	movq	%rdx, %rdi
.LEHB0:
	call	_ZNSt6vectorIN7segtree4nodeESaIS1_EE7reserveEm
	movl	$0, -60(%rbp)
	jmp	.L27
.L28:
	leaq	-48(%rbp), %rax
	movq	%rax, %rdi
	call	_ZN7segtree4nodeC1Ev
	movl	-60(%rbp), %eax
	movslq	%eax, %rdx
	movq	-96(%rbp), %rax
	movq	%rdx, %rsi
	movq	%rax, %rdi
	call	_ZNSt6vectorIiSaIiEEixEm
	movl	(%rax), %eax
	movl	%eax, -48(%rbp)
	movl	-60(%rbp), %eax
	movl	%eax, -32(%rbp)
	movl	-60(%rbp), %eax
	addl	$1, %eax
	movl	%eax, -28(%rbp)
	movq	-88(%rbp), %rax
	leaq	8(%rax), %rdx
	leaq	-48(%rbp), %rax
	movq	%rax, %rsi
	movq	%rdx, %rdi
	call	_ZNSt6vectorIN7segtree4nodeESaIS1_EE9push_backERKS1_
	addl	$1, -60(%rbp)
.L27:
	movq	-88(%rbp), %rax
	movl	(%rax), %eax
	cmpl	%eax, -60(%rbp)
	jl	.L28
	movl	$0, -68(%rbp)
	movq	-88(%rbp), %rax
	movl	(%rax), %eax
	movl	%eax, -64(%rbp)
	jmp	.L29
.L33:
	movl	-68(%rbp), %eax
	movl	%eax, -56(%rbp)
	jmp	.L30
.L32:
	movl	-56(%rbp), %eax
	addl	$1, %eax
	movl	%eax, -52(%rbp)
	movl	-52(%rbp), %eax
	cmpl	-64(%rbp), %eax
	jne	.L31
	movl	-56(%rbp), %eax
	movl	%eax, -52(%rbp)
.L31:
	movl	-52(%rbp), %edx
	movl	-56(%rbp), %ecx
	movq	-88(%rbp), %rax
	movl	%ecx, %esi
	movq	%rax, %rdi
	call	_ZN7segtree4joinEii
.LEHE0:
	addl	$2, -56(%rbp)
.L30:
	movl	-56(%rbp), %eax
	cmpl	-64(%rbp), %eax
	jl	.L32
	movl	-64(%rbp), %eax
	movl	%eax, -68(%rbp)
	movq	-88(%rbp), %rax
	addq	$8, %rax
	movq	%rax, %rdi
	call	_ZNKSt6vectorIN7segtree4nodeESaIS1_EE4sizeEv
	movl	%eax, -64(%rbp)
.L29:
	movl	-64(%rbp), %eax
	subl	$1, %eax
	cmpl	%eax, -68(%rbp)
	jl	.L33
	jmp	.L38
.L37:
	movq	%rax, %rbx
	movq	-88(%rbp), %rax
	addq	$8, %rax
	movq	%rax, %rdi
	call	_ZNSt6vectorIN7segtree4nodeESaIS1_EED1Ev
	movq	%rbx, %rax
	movq	-24(%rbp), %rdx
	subq	%fs:40, %rdx
	je	.L35
	call	__stack_chk_fail@PLT
.L35:
	movq	%rax, %rdi
.LEHB1:
	call	_Unwind_Resume@PLT
.LEHE1:
.L38:
	movq	-24(%rbp), %rax
	subq	%fs:40, %rax
	je	.L36
	call	__stack_chk_fail@PLT
.L36:
	movq	-8(%rbp), %rbx
	leave
	.cfi_def_cfa 7, 8
	ret
	.cfi_endproc
.LFE2624:
	.globl	__gxx_personality_v0
	.section	.gcc_except_table._ZN7segtreeC2ESt6vectorIiSaIiEE,"aG",@progbits,_ZN7segtreeC5ESt6vectorIiSaIiEE,comdat
.LLSDA2624:
	.byte	0xff
	.byte	0xff
	.byte	0x1
	.uleb128 .LLSDACSE2624-.LLSDACSB2624
.LLSDACSB2624:
	.uleb128 .LEHB0-.LFB2624
	.uleb128 .LEHE0-.LEHB0
	.uleb128 .L37-.LFB2624
	.uleb128 0
	.uleb128 .LEHB1-.LFB2624
	.uleb128 .LEHE1-.LEHB1
	.uleb128 0
	.uleb128 0
.LLSDACSE2624:
	.section	.text._ZN7segtreeC2ESt6vectorIiSaIiEE,"axG",@progbits,_ZN7segtreeC5ESt6vectorIiSaIiEE,comdat
	.size	_ZN7segtreeC2ESt6vectorIiSaIiEE, .-_ZN7segtreeC2ESt6vectorIiSaIiEE
	.weak	_ZN7segtreeC1ESt6vectorIiSaIiEE
	.set	_ZN7segtreeC1ESt6vectorIiSaIiEE,_ZN7segtreeC2ESt6vectorIiSaIiEE
	.section	.text._ZN7segtree6updateEii,"axG",@progbits,_ZN7segtree6updateEii,comdat
	.align 2
	.weak	_ZN7segtree6updateEii
	.type	_ZN7segtree6updateEii, @function
_ZN7segtree6updateEii:
.LFB2626:
	.cfi_startproc
	pushq	%rbp
	.cfi_def_cfa_offset 16
	.cfi_offset 6, -16
	movq	%rsp, %rbp
	.cfi_def_cfa_register 6
	pushq	%rbx
	subq	$24, %rsp
	.cfi_offset 3, -24
	movq	%rdi, -24(%rbp)
	movl	%esi, -28(%rbp)
	movl	%edx, -32(%rbp)
	movl	-32(%rbp), %ebx
	movq	-24(%rbp), %rax
	leaq	8(%rax), %rdx
	movl	-28(%rbp), %eax
	cltq
	movq	%rax, %rsi
	movq	%rdx, %rdi
	call	_ZNSt6vectorIN7segtree4nodeESaIS1_EEixEm
	movl	%ebx, (%rax)
	jmp	.L40
.L41:
	movq	-24(%rbp), %rax
	leaq	8(%rax), %rdx
	movl	-28(%rbp), %eax
	cltq
	movq	%rax, %rsi
	movq	%rdx, %rdi
	call	_ZNSt6vectorIN7segtree4nodeESaIS1_EEixEm
	movl	4(%rax), %eax
	movl	%eax, -28(%rbp)
	movq	-24(%rbp), %rax
	leaq	8(%rax), %rbx
	movq	-24(%rbp), %rax
	leaq	8(%rax), %rdx
	movl	-28(%rbp), %eax
	cltq
	movq	%rax, %rsi
	movq	%rdx, %rdi
	call	_ZNSt6vectorIN7segtree4nodeESaIS1_EEixEm
	movl	8(%rax), %eax
	cltq
	movq	%rax, %rsi
	movq	%rbx, %rdi
	call	_ZNSt6vectorIN7segtree4nodeESaIS1_EEixEm
	movl	(%rax), %ebx
	movq	-24(%rbp), %rax
	leaq	8(%rax), %rdx
	movl	-28(%rbp), %eax
	cltq
	movq	%rax, %rsi
	movq	%rdx, %rdi
	call	_ZNSt6vectorIN7segtree4nodeESaIS1_EEixEm
	movl	%ebx, (%rax)
	movq	-24(%rbp), %rax
	leaq	8(%rax), %rdx
	movl	-28(%rbp), %eax
	cltq
	movq	%rax, %rsi
	movq	%rdx, %rdi
	call	_ZNSt6vectorIN7segtree4nodeESaIS1_EEixEm
	movl	8(%rax), %ebx
	movq	-24(%rbp), %rax
	leaq	8(%rax), %rdx
	movl	-28(%rbp), %eax
	cltq
	movq	%rax, %rsi
	movq	%rdx, %rdi
	call	_ZNSt6vectorIN7segtree4nodeESaIS1_EEixEm
	movl	12(%rax), %eax
	cmpl	%eax, %ebx
	setne	%al
	testb	%al, %al
	je	.L40
	movq	-24(%rbp), %rax
	leaq	8(%rax), %rbx
	movq	-24(%rbp), %rax
	leaq	8(%rax), %rdx
	movl	-28(%rbp), %eax
	cltq
	movq	%rax, %rsi
	movq	%rdx, %rdi
	call	_ZNSt6vectorIN7segtree4nodeESaIS1_EEixEm
	movl	12(%rax), %eax
	cltq
	movq	%rax, %rsi
	movq	%rbx, %rdi
	call	_ZNSt6vectorIN7segtree4nodeESaIS1_EEixEm
	movl	(%rax), %ebx
	movq	-24(%rbp), %rax
	leaq	8(%rax), %rdx
	movl	-28(%rbp), %eax
	cltq
	movq	%rax, %rsi
	movq	%rdx, %rdi
	call	_ZNSt6vectorIN7segtree4nodeESaIS1_EEixEm
	movl	(%rax), %edx
	addl	%ebx, %edx
	movl	%edx, (%rax)
.L40:
	movq	-24(%rbp), %rax
	leaq	8(%rax), %rdx
	movl	-28(%rbp), %eax
	cltq
	movq	%rax, %rsi
	movq	%rdx, %rdi
	call	_ZNSt6vectorIN7segtree4nodeESaIS1_EEixEm
	movl	4(%rax), %eax
	cmpl	$-1, %eax
	setne	%al
	testb	%al, %al
	jne	.L41
	nop
	nop
	movq	-8(%rbp), %rbx
	leave
	.cfi_def_cfa 7, 8
	ret
	.cfi_endproc
.LFE2626:
	.size	_ZN7segtree6updateEii, .-_ZN7segtree6updateEii
	.section	.text._ZNSt5queueIiSt5dequeIiSaIiEEED2Ev,"axG",@progbits,_ZNSt5queueIiSt5dequeIiSaIiEEED5Ev,comdat
	.align 2
	.weak	_ZNSt5queueIiSt5dequeIiSaIiEEED2Ev
	.type	_ZNSt5queueIiSt5dequeIiSaIiEEED2Ev, @function
_ZNSt5queueIiSt5dequeIiSaIiEEED2Ev:
.LFB2630:
	.cfi_startproc
	pushq	%rbp
	.cfi_def_cfa_offset 16
	.cfi_offset 6, -16
	movq	%rsp, %rbp
	.cfi_def_cfa_register 6
	subq	$16, %rsp
	movq	%rdi, -8(%rbp)
	movq	-8(%rbp), %rax
	movq	%rax, %rdi
	call	_ZNSt5dequeIiSaIiEED1Ev
	nop
	leave
	.cfi_def_cfa 7, 8
	ret
	.cfi_endproc
.LFE2630:
	.size	_ZNSt5queueIiSt5dequeIiSaIiEEED2Ev, .-_ZNSt5queueIiSt5dequeIiSaIiEEED2Ev
	.weak	_ZNSt5queueIiSt5dequeIiSaIiEEED1Ev
	.set	_ZNSt5queueIiSt5dequeIiSaIiEEED1Ev,_ZNSt5queueIiSt5dequeIiSaIiEEED2Ev
	.section	.text._ZN7segtree5rangeEii,"axG",@progbits,_ZN7segtree5rangeEii,comdat
	.align 2
	.weak	_ZN7segtree5rangeEii
	.type	_ZN7segtree5rangeEii, @function
_ZN7segtree5rangeEii:
.LFB2627:
	.cfi_startproc
	.cfi_personality 0x9b,DW.ref.__gxx_personality_v0
	.cfi_lsda 0x1b,.LLSDA2627
	pushq	%rbp
	.cfi_def_cfa_offset 16
	.cfi_offset 6, -16
	movq	%rsp, %rbp
	.cfi_def_cfa_register 6
	pushq	%rbx
	subq	$136, %rsp
	.cfi_offset 3, -24
	movq	%rdi, -136(%rbp)
	movl	%esi, -140(%rbp)
	movl	%edx, -144(%rbp)
	movq	%fs:40, %rax
	movq	%rax, -24(%rbp)
	xorl	%eax, %eax
	movl	$0, -120(%rbp)
	leaq	-112(%rbp), %rax
	movq	%rax, %rdi
.LEHB2:
	call	_ZNSt5queueIiSt5dequeIiSaIiEEEC1IS2_vEEv
.LEHE2:
	movq	-136(%rbp), %rax
	addq	$8, %rax
	movq	%rax, %rdi
	call	_ZNKSt6vectorIN7segtree4nodeESaIS1_EE4sizeEv
	subl	$1, %eax
	movl	%eax, -124(%rbp)
	leaq	-124(%rbp), %rdx
	leaq	-112(%rbp), %rax
	movq	%rdx, %rsi
	movq	%rax, %rdi
.LEHB3:
	call	_ZNSt5queueIiSt5dequeIiSaIiEEE4pushEOi
	jmp	.L44
.L46:
	leaq	-112(%rbp), %rax
	movq	%rax, %rdi
	call	_ZNSt5queueIiSt5dequeIiSaIiEEE5frontEv
	movl	(%rax), %eax
	movl	%eax, -116(%rbp)
	leaq	-112(%rbp), %rax
	movq	%rax, %rdi
	call	_ZNSt5queueIiSt5dequeIiSaIiEEE3popEv
	movq	-136(%rbp), %rax
	leaq	8(%rax), %rdx
	movl	-116(%rbp), %eax
	cltq
	movq	%rax, %rsi
	movq	%rdx, %rdi
	call	_ZNSt6vectorIN7segtree4nodeESaIS1_EEixEm
	movl	20(%rax), %ebx
	movq	-136(%rbp), %rax
	leaq	8(%rax), %rdx
	movl	-116(%rbp), %eax
	cltq
	movq	%rax, %rsi
	movq	%rdx, %rdi
	call	_ZNSt6vectorIN7segtree4nodeESaIS1_EEixEm
	movl	16(%rax), %esi
	movl	-144(%rbp), %ecx
	movl	-140(%rbp), %edx
	movq	-136(%rbp), %rax
	movl	%ecx, %r8d
	movl	%edx, %ecx
	movl	%ebx, %edx
	movq	%rax, %rdi
	call	_ZN7segtree8in_rangeEiiii
	testb	%al, %al
	je	.L45
	movq	-136(%rbp), %rax
	leaq	8(%rax), %rdx
	movl	-116(%rbp), %eax
	cltq
	movq	%rax, %rsi
	movq	%rdx, %rdi
	call	_ZNSt6vectorIN7segtree4nodeESaIS1_EEixEm
	movl	(%rax), %eax
	addl	%eax, -120(%rbp)
	jmp	.L44
.L45:
	movq	-136(%rbp), %rax
	leaq	8(%rax), %rdx
	movl	-116(%rbp), %eax
	cltq
	movq	%rax, %rsi
	movq	%rdx, %rdi
	call	_ZNSt6vectorIN7segtree4nodeESaIS1_EEixEm
	movl	20(%rax), %ebx
	movq	-136(%rbp), %rax
	leaq	8(%rax), %rdx
	movl	-116(%rbp), %eax
	cltq
	movq	%rax, %rsi
	movq	%rdx, %rdi
	call	_ZNSt6vectorIN7segtree4nodeESaIS1_EEixEm
	movl	16(%rax), %esi
	movl	-144(%rbp), %ecx
	movl	-140(%rbp), %edx
	movq	-136(%rbp), %rax
	movl	%ecx, %r8d
	movl	%edx, %ecx
	movl	%ebx, %edx
	movq	%rax, %rdi
	call	_ZN7segtree8on_rangeEiiii
	testb	%al, %al
	je	.L44
	movq	-136(%rbp), %rax
	leaq	8(%rax), %rdx
	movl	-116(%rbp), %eax
	cltq
	movq	%rax, %rsi
	movq	%rdx, %rdi
	call	_ZNSt6vectorIN7segtree4nodeESaIS1_EEixEm
	leaq	8(%rax), %rdx
	leaq	-112(%rbp), %rax
	movq	%rdx, %rsi
	movq	%rax, %rdi
	call	_ZNSt5queueIiSt5dequeIiSaIiEEE4pushERKi
	movq	-136(%rbp), %rax
	leaq	8(%rax), %rdx
	movl	-116(%rbp), %eax
	cltq
	movq	%rax, %rsi
	movq	%rdx, %rdi
	call	_ZNSt6vectorIN7segtree4nodeESaIS1_EEixEm
	leaq	12(%rax), %rdx
	leaq	-112(%rbp), %rax
	movq	%rdx, %rsi
	movq	%rax, %rdi
	call	_ZNSt5queueIiSt5dequeIiSaIiEEE4pushERKi
.LEHE3:
.L44:
	leaq	-112(%rbp), %rax
	movq	%rax, %rdi
	call	_ZNKSt5queueIiSt5dequeIiSaIiEEE5emptyEv
	xorl	$1, %eax
	testb	%al, %al
	jne	.L46
	movl	-120(%rbp), %ebx
	leaq	-112(%rbp), %rax
	movq	%rax, %rdi
	call	_ZNSt5queueIiSt5dequeIiSaIiEEED1Ev
	movl	%ebx, %eax
	movq	-24(%rbp), %rdx
	subq	%fs:40, %rdx
	je	.L50
	jmp	.L52
.L51:
	movq	%rax, %rbx
	leaq	-112(%rbp), %rax
	movq	%rax, %rdi
	call	_ZNSt5queueIiSt5dequeIiSaIiEEED1Ev
	movq	%rbx, %rax
	movq	-24(%rbp), %rdx
	subq	%fs:40, %rdx
	je	.L49
	call	__stack_chk_fail@PLT
.L49:
	movq	%rax, %rdi
.LEHB4:
	call	_Unwind_Resume@PLT
.LEHE4:
.L52:
	call	__stack_chk_fail@PLT
.L50:
	movq	-8(%rbp), %rbx
	leave
	.cfi_def_cfa 7, 8
	ret
	.cfi_endproc
.LFE2627:
	.section	.gcc_except_table._ZN7segtree5rangeEii,"aG",@progbits,_ZN7segtree5rangeEii,comdat
.LLSDA2627:
	.byte	0xff
	.byte	0xff
	.byte	0x1
	.uleb128 .LLSDACSE2627-.LLSDACSB2627
.LLSDACSB2627:
	.uleb128 .LEHB2-.LFB2627
	.uleb128 .LEHE2-.LEHB2
	.uleb128 0
	.uleb128 0
	.uleb128 .LEHB3-.LFB2627
	.uleb128 .LEHE3-.LEHB3
	.uleb128 .L51-.LFB2627
	.uleb128 0
	.uleb128 .LEHB4-.LFB2627
	.uleb128 .LEHE4-.LEHB4
	.uleb128 0
	.uleb128 0
.LLSDACSE2627:
	.section	.text._ZN7segtree5rangeEii,"axG",@progbits,_ZN7segtree5rangeEii,comdat
	.size	_ZN7segtree5rangeEii, .-_ZN7segtree5rangeEii
	.section	.text._ZN7segtreeD2Ev,"axG",@progbits,_ZN7segtreeD5Ev,comdat
	.align 2
	.weak	_ZN7segtreeD2Ev
	.type	_ZN7segtreeD2Ev, @function
_ZN7segtreeD2Ev:
.LFB2634:
	.cfi_startproc
	pushq	%rbp
	.cfi_def_cfa_offset 16
	.cfi_offset 6, -16
	movq	%rsp, %rbp
	.cfi_def_cfa_register 6
	subq	$16, %rsp
	movq	%rdi, -8(%rbp)
	movq	-8(%rbp), %rax
	addq	$8, %rax
	movq	%rax, %rdi
	call	_ZNSt6vectorIN7segtree4nodeESaIS1_EED1Ev
	nop
	leave
	.cfi_def_cfa 7, 8
	ret
	.cfi_endproc
.LFE2634:
	.size	_ZN7segtreeD2Ev, .-_ZN7segtreeD2Ev
	.weak	_ZN7segtreeD1Ev
	.set	_ZN7segtreeD1Ev,_ZN7segtreeD2Ev
	.text
	.globl	main
	.type	main, @function
main:
.LFB2632:
	.cfi_startproc
	.cfi_personality 0x9b,DW.ref.__gxx_personality_v0
	.cfi_lsda 0x1b,.LLSDA2632
	pushq	%rbp
	.cfi_def_cfa_offset 16
	.cfi_offset 6, -16
	movq	%rsp, %rbp
	.cfi_def_cfa_register 6
	pushq	%rbx
	subq	$152, %rsp
	.cfi_offset 3, -24
	movq	%fs:40, %rax
	movq	%rax, -24(%rbp)
	xorl	%eax, %eax
	leaq	-152(%rbp), %rax
	movq	%rax, %rsi
	leaq	_ZSt3cin(%rip), %rax
	movq	%rax, %rdi
.LEHB5:
	call	_ZNSirsERi@PLT
.LEHE5:
	leaq	-64(%rbp), %rax
	movq	%rax, -136(%rbp)
	nop
	nop
	movl	-152(%rbp), %eax
	movslq	%eax, %rcx
	leaq	-64(%rbp), %rdx
	leaq	-128(%rbp), %rax
	movq	%rcx, %rsi
	movq	%rax, %rdi
.LEHB6:
	call	_ZNSt6vectorIiSaIiEEC1EmRKS0_
.LEHE6:
	leaq	-64(%rbp), %rax
	movq	%rax, %rdi
	call	_ZNSt15__new_allocatorIiED2Ev
	nop
	movl	$0, -140(%rbp)
	jmp	.L55
.L56:
	movl	-140(%rbp), %eax
	movslq	%eax, %rdx
	leaq	-128(%rbp), %rax
	movq	%rdx, %rsi
	movq	%rax, %rdi
	call	_ZNSt6vectorIiSaIiEEixEm
	movq	%rax, %rsi
	leaq	_ZSt3cin(%rip), %rax
	movq	%rax, %rdi
.LEHB7:
	call	_ZNSirsERi@PLT
	addl	$1, -140(%rbp)
.L55:
	movl	-152(%rbp), %eax
	cmpl	%eax, -140(%rbp)
	jl	.L56
	leaq	-128(%rbp), %rdx
	leaq	-96(%rbp), %rax
	movq	%rdx, %rsi
	movq	%rax, %rdi
	call	_ZNSt6vectorIiSaIiEEC1ERKS1_
.LEHE7:
	leaq	-96(%rbp), %rdx
	leaq	-64(%rbp), %rax
	movq	%rdx, %rsi
	movq	%rax, %rdi
.LEHB8:
	call	_ZN7segtreeC1ESt6vectorIiSaIiEE
.LEHE8:
	leaq	-96(%rbp), %rax
	movq	%rax, %rdi
	call	_ZNSt6vectorIiSaIiEED1Ev
.L61:
	leaq	-148(%rbp), %rax
	movq	%rax, %rsi
	leaq	_ZSt3cin(%rip), %rax
	movq	%rax, %rdi
.LEHB9:
	call	_ZNSirsERi@PLT
	movl	-148(%rbp), %eax
	testl	%eax, %eax
	jne	.L57
	leaq	-64(%rbp), %rax
	movq	%rax, %rdi
	call	_ZN7segtreeD1Ev
	leaq	-128(%rbp), %rax
	movq	%rax, %rdi
	call	_ZNSt6vectorIiSaIiEED1Ev
	movl	$0, %eax
	movq	-24(%rbp), %rdx
	subq	%fs:40, %rdx
	je	.L68
	jmp	.L74
.L57:
	movl	-148(%rbp), %eax
	cmpl	$1, %eax
	je	.L59
	leaq	-144(%rbp), %rax
	movq	%rax, %rsi
	leaq	_ZSt3cin(%rip), %rax
	movq	%rax, %rdi
	call	_ZNSirsERi@PLT
	movq	%rax, %rdx
	leaq	-96(%rbp), %rax
	movq	%rax, %rsi
	movq	%rdx, %rdi
	call	_ZNSirsERi@PLT
	movl	-96(%rbp), %edx
	movl	-144(%rbp), %ecx
	leaq	-64(%rbp), %rax
	movl	%ecx, %esi
	movq	%rax, %rdi
	call	_ZN7segtree5rangeEii
	movl	%eax, %esi
	leaq	_ZSt4cout(%rip), %rax
	movq	%rax, %rdi
	call	_ZNSolsEi@PLT
	movl	$10, %esi
	movq	%rax, %rdi
	call	_ZStlsISt11char_traitsIcEERSt13basic_ostreamIcT_ES5_c@PLT
	jmp	.L61
.L59:
	leaq	-144(%rbp), %rax
	movq	%rax, %rsi
	leaq	_ZSt3cin(%rip), %rax
	movq	%rax, %rdi
	call	_ZNSirsERi@PLT
	movq	%rax, %rdx
	leaq	-96(%rbp), %rax
	movq	%rax, %rsi
	movq	%rdx, %rdi
	call	_ZNSirsERi@PLT
.LEHE9:
	movl	-96(%rbp), %edx
	movl	-144(%rbp), %ecx
	leaq	-64(%rbp), %rax
	movl	%ecx, %esi
	movq	%rax, %rdi
	call	_ZN7segtree6updateEii
	jmp	.L61
.L69:
	movq	%rax, %rbx
	leaq	-64(%rbp), %rax
	movq	%rax, %rdi
	call	_ZNSt15__new_allocatorIiED2Ev
	nop
	movq	%rbx, %rax
	movq	-24(%rbp), %rdx
	subq	%fs:40, %rdx
	je	.L63
	call	__stack_chk_fail@PLT
.L63:
	movq	%rax, %rdi
.LEHB10:
	call	_Unwind_Resume@PLT
.L71:
	movq	%rax, %rbx
	leaq	-96(%rbp), %rax
	movq	%rax, %rdi
	call	_ZNSt6vectorIiSaIiEED1Ev
	jmp	.L65
.L72:
	movq	%rax, %rbx
	leaq	-64(%rbp), %rax
	movq	%rax, %rdi
	call	_ZN7segtreeD1Ev
	jmp	.L65
.L70:
	movq	%rax, %rbx
.L65:
	leaq	-128(%rbp), %rax
	movq	%rax, %rdi
	call	_ZNSt6vectorIiSaIiEED1Ev
	movq	%rbx, %rax
	movq	-24(%rbp), %rdx
	subq	%fs:40, %rdx
	je	.L67
	call	__stack_chk_fail@PLT
.L67:
	movq	%rax, %rdi
	call	_Unwind_Resume@PLT
.LEHE10:
.L74:
	call	__stack_chk_fail@PLT
.L68:
	movq	-8(%rbp), %rbx
	leave
	.cfi_def_cfa 7, 8
	ret
	.cfi_endproc
.LFE2632:
	.section	.gcc_except_table,"a",@progbits
.LLSDA2632:
	.byte	0xff
	.byte	0xff
	.byte	0x1
	.uleb128 .LLSDACSE2632-.LLSDACSB2632
.LLSDACSB2632:
	.uleb128 .LEHB5-.LFB2632
	.uleb128 .LEHE5-.LEHB5
	.uleb128 0
	.uleb128 0
	.uleb128 .LEHB6-.LFB2632
	.uleb128 .LEHE6-.LEHB6
	.uleb128 .L69-.LFB2632
	.uleb128 0
	.uleb128 .LEHB7-.LFB2632
	.uleb128 .LEHE7-.LEHB7
	.uleb128 .L70-.LFB2632
	.uleb128 0
	.uleb128 .LEHB8-.LFB2632
	.uleb128 .LEHE8-.LEHB8
	.uleb128 .L71-.LFB2632
	.uleb128 0
	.uleb128 .LEHB9-.LFB2632
	.uleb128 .LEHE9-.LEHB9
	.uleb128 .L72-.LFB2632
	.uleb128 0
	.uleb128 .LEHB10-.LFB2632
	.uleb128 .LEHE10-.LEHB10
	.uleb128 0
	.uleb128 0
.LLSDACSE2632:
	.text
	.size	main, .-main
	.section	.text._ZNSt6vectorIN7segtree4nodeESaIS1_EEixEm,"axG",@progbits,_ZNSt6vectorIN7segtree4nodeESaIS1_EEixEm,comdat
	.align 2
	.weak	_ZNSt6vectorIN7segtree4nodeESaIS1_EEixEm
	.type	_ZNSt6vectorIN7segtree4nodeESaIS1_EEixEm, @function
_ZNSt6vectorIN7segtree4nodeESaIS1_EEixEm:
.LFB2891:
	.cfi_startproc
	pushq	%rbp
	.cfi_def_cfa_offset 16
	.cfi_offset 6, -16
	movq	%rsp, %rbp
	.cfi_def_cfa_register 6
	movq	%rdi, -8(%rbp)
	movq	%rsi, -16(%rbp)
	movq	-8(%rbp), %rax
	movq	(%rax), %rcx
	movq	-16(%rbp), %rdx
	movq	%rdx, %rax
	addq	%rax, %rax
	addq	%rdx, %rax
	salq	$3, %rax
	addq	%rcx, %rax
	popq	%rbp
	.cfi_def_cfa 7, 8
	ret
	.cfi_endproc
.LFE2891:
	.size	_ZNSt6vectorIN7segtree4nodeESaIS1_EEixEm, .-_ZNSt6vectorIN7segtree4nodeESaIS1_EEixEm
	.section	.text._ZNKSt6vectorIN7segtree4nodeESaIS1_EE4sizeEv,"axG",@progbits,_ZNKSt6vectorIN7segtree4nodeESaIS1_EE4sizeEv,comdat
	.align 2
	.weak	_ZNKSt6vectorIN7segtree4nodeESaIS1_EE4sizeEv
	.type	_ZNKSt6vectorIN7segtree4nodeESaIS1_EE4sizeEv, @function
_ZNKSt6vectorIN7segtree4nodeESaIS1_EE4sizeEv:
.LFB2892:
	.cfi_startproc
	pushq	%rbp
	.cfi_def_cfa_offset 16
	.cfi_offset 6, -16
	movq	%rsp, %rbp
	.cfi_def_cfa_register 6
	movq	%rdi, -8(%rbp)
	movq	-8(%rbp), %rax
	movq	8(%rax), %rdx
	movq	-8(%rbp), %rax
	movq	(%rax), %rax
	subq	%rax, %rdx
	sarq	$3, %rdx
	movabsq	$-6148914691236517205, %rax
	imulq	%rdx, %rax
	popq	%rbp
	.cfi_def_cfa 7, 8
	ret
	.cfi_endproc
.LFE2892:
	.size	_ZNKSt6vectorIN7segtree4nodeESaIS1_EE4sizeEv, .-_ZNKSt6vectorIN7segtree4nodeESaIS1_EE4sizeEv
	.section	.text._ZNSt6vectorIN7segtree4nodeESaIS1_EE9push_backERKS1_,"axG",@progbits,_ZNSt6vectorIN7segtree4nodeESaIS1_EE9push_backERKS1_,comdat
	.align 2
	.weak	_ZNSt6vectorIN7segtree4nodeESaIS1_EE9push_backERKS1_
	.type	_ZNSt6vectorIN7segtree4nodeESaIS1_EE9push_backERKS1_, @function
_ZNSt6vectorIN7segtree4nodeESaIS1_EE9push_backERKS1_:
.LFB2893:
	.cfi_startproc
	pushq	%rbp
	.cfi_def_cfa_offset 16
	.cfi_offset 6, -16
	movq	%rsp, %rbp
	.cfi_def_cfa_register 6
	pushq	%rbx
	subq	$72, %rsp
	.cfi_offset 3, -24
	movq	%rdi, -72(%rbp)
	movq	%rsi, -80(%rbp)
	movq	-72(%rbp), %rax
	movq	8(%rax), %rdx
	movq	-72(%rbp), %rax
	movq	16(%rax), %rax
	cmpq	%rax, %rdx
	je	.L80
	movq	-72(%rbp), %rax
	movq	8(%rax), %rax
	movq	-72(%rbp), %rdx
	movq	%rdx, -64(%rbp)
	movq	%rax, -56(%rbp)
	movq	-80(%rbp), %rax
	movq	%rax, -48(%rbp)
	movq	-48(%rbp), %rax
	movq	%rax, %rdi
	call	_ZSt7forwardIRKN7segtree4nodeEEOT_RNSt16remove_referenceIS4_E4typeE
	movq	-64(%rbp), %rdx
	movq	%rdx, -40(%rbp)
	movq	-56(%rbp), %rdx
	movq	%rdx, -32(%rbp)
	movq	%rax, -24(%rbp)
	movq	-32(%rbp), %rax
	movq	%rax, %rsi
	movl	$24, %edi
	call	_ZnwmPv
	movq	%rax, %rbx
	movq	-24(%rbp), %rax
	movq	%rax, %rdi
	call	_ZSt7forwardIRKN7segtree4nodeEEOT_RNSt16remove_referenceIS4_E4typeE
	movq	%rax, %rcx
	movq	(%rcx), %rax
	movq	8(%rcx), %rdx
	movq	%rax, (%rbx)
	movq	%rdx, 8(%rbx)
	movq	16(%rcx), %rax
	movq	%rax, 16(%rbx)
	nop
	nop
	movq	-72(%rbp), %rax
	movq	8(%rax), %rax
	leaq	24(%rax), %rdx
	movq	-72(%rbp), %rax
	movq	%rdx, 8(%rax)
	jmp	.L82
.L80:
	movq	-72(%rbp), %rax
	movq	%rax, %rdi
	call	_ZNSt6vectorIN7segtree4nodeESaIS1_EE3endEv
	movq	%rax, %rcx
	movq	-80(%rbp), %rdx
	movq	-72(%rbp), %rax
	movq	%rcx, %rsi
	movq	%rax, %rdi
	call	_ZNSt6vectorIN7segtree4nodeESaIS1_EE17_M_realloc_insertIJRKS1_EEEvN9__gnu_cxx17__normal_iteratorIPS1_S3_EEDpOT_
.L82:
	nop
	movq	-8(%rbp), %rbx
	leave
	.cfi_def_cfa 7, 8
	ret
	.cfi_endproc
.LFE2893:
	.size	_ZNSt6vectorIN7segtree4nodeESaIS1_EE9push_backERKS1_, .-_ZNSt6vectorIN7segtree4nodeESaIS1_EE9push_backERKS1_
	.section	.text._ZNSt12_Vector_baseIN7segtree4nodeESaIS1_EE12_Vector_implC2Ev,"axG",@progbits,_ZNSt12_Vector_baseIN7segtree4nodeESaIS1_EE12_Vector_implC5Ev,comdat
	.align 2
	.weak	_ZNSt12_Vector_baseIN7segtree4nodeESaIS1_EE12_Vector_implC2Ev
	.type	_ZNSt12_Vector_baseIN7segtree4nodeESaIS1_EE12_Vector_implC2Ev, @function
_ZNSt12_Vector_baseIN7segtree4nodeESaIS1_EE12_Vector_implC2Ev:
.LFB2896:
	.cfi_startproc
	pushq	%rbp
	.cfi_def_cfa_offset 16
	.cfi_offset 6, -16
	movq	%rsp, %rbp
	.cfi_def_cfa_register 6
	subq	$32, %rsp
	movq	%rdi, -24(%rbp)
	movq	-24(%rbp), %rax
	movq	%rax, -16(%rbp)
	movq	-16(%rbp), %rax
	movq	%rax, -8(%rbp)
	nop
	nop
	movq	-24(%rbp), %rax
	movq	%rax, %rdi
	call	_ZNSt12_Vector_baseIN7segtree4nodeESaIS1_EE17_Vector_impl_dataC2Ev
	nop
	leave
	.cfi_def_cfa 7, 8
	ret
	.cfi_endproc
.LFE2896:
	.size	_ZNSt12_Vector_baseIN7segtree4nodeESaIS1_EE12_Vector_implC2Ev, .-_ZNSt12_Vector_baseIN7segtree4nodeESaIS1_EE12_Vector_implC2Ev
	.weak	_ZNSt12_Vector_baseIN7segtree4nodeESaIS1_EE12_Vector_implC1Ev
	.set	_ZNSt12_Vector_baseIN7segtree4nodeESaIS1_EE12_Vector_implC1Ev,_ZNSt12_Vector_baseIN7segtree4nodeESaIS1_EE12_Vector_implC2Ev
	.section	.text._ZNSt12_Vector_baseIN7segtree4nodeESaIS1_EED2Ev,"axG",@progbits,_ZNSt12_Vector_baseIN7segtree4nodeESaIS1_EED5Ev,comdat
	.align 2
	.weak	_ZNSt12_Vector_baseIN7segtree4nodeESaIS1_EED2Ev
	.type	_ZNSt12_Vector_baseIN7segtree4nodeESaIS1_EED2Ev, @function
_ZNSt12_Vector_baseIN7segtree4nodeESaIS1_EED2Ev:
.LFB2902:
	.cfi_startproc
	.cfi_personality 0x9b,DW.ref.__gxx_personality_v0
	.cfi_lsda 0x1b,.LLSDA2902
	pushq	%rbp
	.cfi_def_cfa_offset 16
	.cfi_offset 6, -16
	movq	%rsp, %rbp
	.cfi_def_cfa_register 6
	subq	$16, %rsp
	movq	%rdi, -8(%rbp)
	movq	-8(%rbp), %rax
	movq	16(%rax), %rdx
	movq	-8(%rbp), %rax
	movq	(%rax), %rax
	subq	%rax, %rdx
	sarq	$3, %rdx
	movabsq	$-6148914691236517205, %rax
	imulq	%rdx, %rax
	movq	%rax, %rdx
	movq	-8(%rbp), %rax
	movq	(%rax), %rcx
	movq	-8(%rbp), %rax
	movq	%rcx, %rsi
	movq	%rax, %rdi
	call	_ZNSt12_Vector_baseIN7segtree4nodeESaIS1_EE13_M_deallocateEPS1_m
	movq	-8(%rbp), %rax
	movq	%rax, %rdi
	call	_ZNSt12_Vector_baseIN7segtree4nodeESaIS1_EE12_Vector_implD1Ev
	nop
	leave
	.cfi_def_cfa 7, 8
	ret
	.cfi_endproc
.LFE2902:
	.section	.gcc_except_table
.LLSDA2902:
	.byte	0xff
	.byte	0xff
	.byte	0x1
	.uleb128 .LLSDACSE2902-.LLSDACSB2902
.LLSDACSB2902:
.LLSDACSE2902:
	.section	.text._ZNSt12_Vector_baseIN7segtree4nodeESaIS1_EED2Ev,"axG",@progbits,_ZNSt12_Vector_baseIN7segtree4nodeESaIS1_EED5Ev,comdat
	.size	_ZNSt12_Vector_baseIN7segtree4nodeESaIS1_EED2Ev, .-_ZNSt12_Vector_baseIN7segtree4nodeESaIS1_EED2Ev
	.weak	_ZNSt12_Vector_baseIN7segtree4nodeESaIS1_EED1Ev
	.set	_ZNSt12_Vector_baseIN7segtree4nodeESaIS1_EED1Ev,_ZNSt12_Vector_baseIN7segtree4nodeESaIS1_EED2Ev
	.section	.text._ZNSt6vectorIN7segtree4nodeESaIS1_EED2Ev,"axG",@progbits,_ZNSt6vectorIN7segtree4nodeESaIS1_EED5Ev,comdat
	.align 2
	.weak	_ZNSt6vectorIN7segtree4nodeESaIS1_EED2Ev
	.type	_ZNSt6vectorIN7segtree4nodeESaIS1_EED2Ev, @function
_ZNSt6vectorIN7segtree4nodeESaIS1_EED2Ev:
.LFB2905:
	.cfi_startproc
	.cfi_personality 0x9b,DW.ref.__gxx_personality_v0
	.cfi_lsda 0x1b,.LLSDA2905
	pushq	%rbp
	.cfi_def_cfa_offset 16
	.cfi_offset 6, -16
	movq	%rsp, %rbp
	.cfi_def_cfa_register 6
	subq	$48, %rsp
	movq	%rdi, -40(%rbp)
	movq	-40(%rbp), %rax
	movq	%rax, %rdi
	call	_ZNSt12_Vector_baseIN7segtree4nodeESaIS1_EE19_M_get_Tp_allocatorEv
	movq	-40(%rbp), %rdx
	movq	8(%rdx), %rdx
	movq	-40(%rbp), %rcx
	movq	(%rcx), %rcx
	movq	%rcx, -24(%rbp)
	movq	%rdx, -16(%rbp)
	movq	%rax, -8(%rbp)
	movq	-16(%rbp), %rdx
	movq	-24(%rbp), %rax
	movq	%rdx, %rsi
	movq	%rax, %rdi
	call	_ZSt8_DestroyIPN7segtree4nodeEEvT_S3_
	nop
	movq	-40(%rbp), %rax
	movq	%rax, %rdi
	call	_ZNSt12_Vector_baseIN7segtree4nodeESaIS1_EED2Ev
	nop
	leave
	.cfi_def_cfa 7, 8
	ret
	.cfi_endproc
.LFE2905:
	.section	.gcc_except_table
.LLSDA2905:
	.byte	0xff
	.byte	0xff
	.byte	0x1
	.uleb128 .LLSDACSE2905-.LLSDACSB2905
.LLSDACSB2905:
.LLSDACSE2905:
	.section	.text._ZNSt6vectorIN7segtree4nodeESaIS1_EED2Ev,"axG",@progbits,_ZNSt6vectorIN7segtree4nodeESaIS1_EED5Ev,comdat
	.size	_ZNSt6vectorIN7segtree4nodeESaIS1_EED2Ev, .-_ZNSt6vectorIN7segtree4nodeESaIS1_EED2Ev
	.weak	_ZNSt6vectorIN7segtree4nodeESaIS1_EED1Ev
	.set	_ZNSt6vectorIN7segtree4nodeESaIS1_EED1Ev,_ZNSt6vectorIN7segtree4nodeESaIS1_EED2Ev
	.section	.text._ZNKSt6vectorIiSaIiEE4sizeEv,"axG",@progbits,_ZNKSt6vectorIiSaIiEE4sizeEv,comdat
	.align 2
	.weak	_ZNKSt6vectorIiSaIiEE4sizeEv
	.type	_ZNKSt6vectorIiSaIiEE4sizeEv, @function
_ZNKSt6vectorIiSaIiEE4sizeEv:
.LFB2907:
	.cfi_startproc
	pushq	%rbp
	.cfi_def_cfa_offset 16
	.cfi_offset 6, -16
	movq	%rsp, %rbp
	.cfi_def_cfa_register 6
	movq	%rdi, -8(%rbp)
	movq	-8(%rbp), %rax
	movq	8(%rax), %rdx
	movq	-8(%rbp), %rax
	movq	(%rax), %rax
	subq	%rax, %rdx
	movq	%rdx, %rax
	sarq	$2, %rax
	popq	%rbp
	.cfi_def_cfa 7, 8
	ret
	.cfi_endproc
.LFE2907:
	.size	_ZNKSt6vectorIiSaIiEE4sizeEv, .-_ZNKSt6vectorIiSaIiEE4sizeEv
	.section	.rodata
.LC0:
	.string	"vector::reserve"
	.section	.text._ZNSt6vectorIN7segtree4nodeESaIS1_EE7reserveEm,"axG",@progbits,_ZNSt6vectorIN7segtree4nodeESaIS1_EE7reserveEm,comdat
	.align 2
	.weak	_ZNSt6vectorIN7segtree4nodeESaIS1_EE7reserveEm
	.type	_ZNSt6vectorIN7segtree4nodeESaIS1_EE7reserveEm, @function
_ZNSt6vectorIN7segtree4nodeESaIS1_EE7reserveEm:
.LFB2908:
	.cfi_startproc
	pushq	%rbp
	.cfi_def_cfa_offset 16
	.cfi_offset 6, -16
	movq	%rsp, %rbp
	.cfi_def_cfa_register 6
	subq	$32, %rsp
	movq	%rdi, -24(%rbp)
	movq	%rsi, -32(%rbp)
	movq	-24(%rbp), %rax
	movq	%rax, %rdi
	call	_ZNKSt6vectorIN7segtree4nodeESaIS1_EE8max_sizeEv
	cmpq	-32(%rbp), %rax
	setb	%al
	testb	%al, %al
	je	.L89
	leaq	.LC0(%rip), %rax
	movq	%rax, %rdi
	call	_ZSt20__throw_length_errorPKc@PLT
.L89:
	movq	-24(%rbp), %rax
	movq	%rax, %rdi
	call	_ZNKSt6vectorIN7segtree4nodeESaIS1_EE8capacityEv
	cmpq	-32(%rbp), %rax
	setb	%al
	testb	%al, %al
	je	.L91
	movq	-24(%rbp), %rax
	movq	%rax, %rdi
	call	_ZNKSt6vectorIN7segtree4nodeESaIS1_EE4sizeEv
	movq	%rax, -16(%rbp)
	movq	-24(%rbp), %rax
	movq	-32(%rbp), %rdx
	movq	%rdx, %rsi
	movq	%rax, %rdi
	call	_ZNSt12_Vector_baseIN7segtree4nodeESaIS1_EE11_M_allocateEm
	movq	%rax, -8(%rbp)
	movq	-24(%rbp), %rax
	movq	%rax, %rdi
	call	_ZNSt12_Vector_baseIN7segtree4nodeESaIS1_EE19_M_get_Tp_allocatorEv
	movq	%rax, %rcx
	movq	-24(%rbp), %rax
	movq	8(%rax), %rsi
	movq	-24(%rbp), %rax
	movq	(%rax), %rax
	movq	-8(%rbp), %rdx
	movq	%rax, %rdi
	call	_ZNSt6vectorIN7segtree4nodeESaIS1_EE11_S_relocateEPS1_S4_S4_RS2_
	movq	-24(%rbp), %rax
	movq	-24(%rbp), %rdx
	movq	16(%rdx), %rcx
	movq	-24(%rbp), %rdx
	movq	(%rdx), %rdx
	subq	%rdx, %rcx
	sarq	$3, %rcx
	movabsq	$-6148914691236517205, %rdx
	imulq	%rcx, %rdx
	movq	%rdx, %rsi
	movq	-24(%rbp), %rdx
	movq	(%rdx), %rcx
	movq	%rsi, %rdx
	movq	%rcx, %rsi
	movq	%rax, %rdi
	call	_ZNSt12_Vector_baseIN7segtree4nodeESaIS1_EE13_M_deallocateEPS1_m
	movq	-24(%rbp), %rax
	movq	-8(%rbp), %rdx
	movq	%rdx, (%rax)
	movq	-16(%rbp), %rdx
	movq	%rdx, %rax
	addq	%rax, %rax
	addq	%rdx, %rax
	salq	$3, %rax
	movq	%rax, %rdx
	movq	-8(%rbp), %rax
	addq	%rax, %rdx
	movq	-24(%rbp), %rax
	movq	%rdx, 8(%rax)
	movq	-24(%rbp), %rax
	movq	(%rax), %rcx
	movq	-32(%rbp), %rdx
	movq	%rdx, %rax
	addq	%rax, %rax
	addq	%rdx, %rax
	salq	$3, %rax
	leaq	(%rcx,%rax), %rdx
	movq	-24(%rbp), %rax
	movq	%rdx, 16(%rax)
.L91:
	nop
	leave
	.cfi_def_cfa 7, 8
	ret
	.cfi_endproc
.LFE2908:
	.size	_ZNSt6vectorIN7segtree4nodeESaIS1_EE7reserveEm, .-_ZNSt6vectorIN7segtree4nodeESaIS1_EE7reserveEm
	.section	.text._ZNSt6vectorIiSaIiEEixEm,"axG",@progbits,_ZNSt6vectorIiSaIiEEixEm,comdat
	.align 2
	.weak	_ZNSt6vectorIiSaIiEEixEm
	.type	_ZNSt6vectorIiSaIiEEixEm, @function
_ZNSt6vectorIiSaIiEEixEm:
.LFB2912:
	.cfi_startproc
	pushq	%rbp
	.cfi_def_cfa_offset 16
	.cfi_offset 6, -16
	movq	%rsp, %rbp
	.cfi_def_cfa_register 6
	movq	%rdi, -8(%rbp)
	movq	%rsi, -16(%rbp)
	movq	-8(%rbp), %rax
	movq	(%rax), %rax
	movq	-16(%rbp), %rdx
	salq	$2, %rdx
	addq	%rdx, %rax
	popq	%rbp
	.cfi_def_cfa 7, 8
	ret
	.cfi_endproc
.LFE2912:
	.size	_ZNSt6vectorIiSaIiEEixEm, .-_ZNSt6vectorIiSaIiEEixEm
	.section	.text._ZNSt5dequeIiSaIiEEC2Ev,"axG",@progbits,_ZNSt5dequeIiSaIiEEC5Ev,comdat
	.align 2
	.weak	_ZNSt5dequeIiSaIiEEC2Ev
	.type	_ZNSt5dequeIiSaIiEEC2Ev, @function
_ZNSt5dequeIiSaIiEEC2Ev:
.LFB2915:
	.cfi_startproc
	pushq	%rbp
	.cfi_def_cfa_offset 16
	.cfi_offset 6, -16
	movq	%rsp, %rbp
	.cfi_def_cfa_register 6
	subq	$16, %rsp
	movq	%rdi, -8(%rbp)
	movq	-8(%rbp), %rax
	movq	%rax, %rdi
	call	_ZNSt11_Deque_baseIiSaIiEEC2Ev
	nop
	leave
	.cfi_def_cfa 7, 8
	ret
	.cfi_endproc
.LFE2915:
	.size	_ZNSt5dequeIiSaIiEEC2Ev, .-_ZNSt5dequeIiSaIiEEC2Ev
	.weak	_ZNSt5dequeIiSaIiEEC1Ev
	.set	_ZNSt5dequeIiSaIiEEC1Ev,_ZNSt5dequeIiSaIiEEC2Ev
	.section	.text._ZNSt5queueIiSt5dequeIiSaIiEEEC2IS2_vEEv,"axG",@progbits,_ZNSt5queueIiSt5dequeIiSaIiEEEC5IS2_vEEv,comdat
	.align 2
	.weak	_ZNSt5queueIiSt5dequeIiSaIiEEEC2IS2_vEEv
	.type	_ZNSt5queueIiSt5dequeIiSaIiEEEC2IS2_vEEv, @function
_ZNSt5queueIiSt5dequeIiSaIiEEEC2IS2_vEEv:
.LFB2917:
	.cfi_startproc
	pushq	%rbp
	.cfi_def_cfa_offset 16
	.cfi_offset 6, -16
	movq	%rsp, %rbp
	.cfi_def_cfa_register 6
	subq	$16, %rsp
	movq	%rdi, -8(%rbp)
	movq	-8(%rbp), %rax
	pxor	%xmm0, %xmm0
	movups	%xmm0, (%rax)
	movups	%xmm0, 16(%rax)
	movups	%xmm0, 32(%rax)
	movups	%xmm0, 48(%rax)
	movups	%xmm0, 64(%rax)
	movq	-8(%rbp), %rax
	movq	%rax, %rdi
	call	_ZNSt5dequeIiSaIiEEC1Ev
	nop
	leave
	.cfi_def_cfa 7, 8
	ret
	.cfi_endproc
.LFE2917:
	.size	_ZNSt5queueIiSt5dequeIiSaIiEEEC2IS2_vEEv, .-_ZNSt5queueIiSt5dequeIiSaIiEEEC2IS2_vEEv
	.weak	_ZNSt5queueIiSt5dequeIiSaIiEEEC1IS2_vEEv
	.set	_ZNSt5queueIiSt5dequeIiSaIiEEEC1IS2_vEEv,_ZNSt5queueIiSt5dequeIiSaIiEEEC2IS2_vEEv
	.section	.text._ZNSt5dequeIiSaIiEED2Ev,"axG",@progbits,_ZNSt5dequeIiSaIiEED5Ev,comdat
	.align 2
	.weak	_ZNSt5dequeIiSaIiEED2Ev
	.type	_ZNSt5dequeIiSaIiEED2Ev, @function
_ZNSt5dequeIiSaIiEED2Ev:
.LFB2920:
	.cfi_startproc
	.cfi_personality 0x9b,DW.ref.__gxx_personality_v0
	.cfi_lsda 0x1b,.LLSDA2920
	pushq	%rbp
	.cfi_def_cfa_offset 16
	.cfi_offset 6, -16
	movq	%rsp, %rbp
	.cfi_def_cfa_register 6
	pushq	%rbx
	subq	$104, %rsp
	.cfi_offset 3, -24
	movq	%rdi, -104(%rbp)
	movq	%fs:40, %rax
	movq	%rax, -24(%rbp)
	xorl	%eax, %eax
	movq	-104(%rbp), %rax
	movq	%rax, %rdi
	call	_ZNSt11_Deque_baseIiSaIiEE19_M_get_Tp_allocatorEv
	movq	%rax, %rbx
	leaq	-64(%rbp), %rax
	movq	-104(%rbp), %rdx
	movq	%rdx, %rsi
	movq	%rax, %rdi
	call	_ZNSt5dequeIiSaIiEE3endEv
	leaq	-96(%rbp), %rax
	movq	-104(%rbp), %rdx
	movq	%rdx, %rsi
	movq	%rax, %rdi
	call	_ZNSt5dequeIiSaIiEE5beginEv
	leaq	-64(%rbp), %rdx
	leaq	-96(%rbp), %rsi
	movq	-104(%rbp), %rax
	movq	%rbx, %rcx
	movq	%rax, %rdi
	call	_ZNSt5dequeIiSaIiEE15_M_destroy_dataESt15_Deque_iteratorIiRiPiES5_RKS0_
	movq	-104(%rbp), %rax
	movq	%rax, %rdi
	call	_ZNSt11_Deque_baseIiSaIiEED2Ev
	nop
	movq	-24(%rbp), %rax
	subq	%fs:40, %rax
	je	.L97
	call	__stack_chk_fail@PLT
.L97:
	movq	-8(%rbp), %rbx
	leave
	.cfi_def_cfa 7, 8
	ret
	.cfi_endproc
.LFE2920:
	.section	.gcc_except_table
.LLSDA2920:
	.byte	0xff
	.byte	0xff
	.byte	0x1
	.uleb128 .LLSDACSE2920-.LLSDACSB2920
.LLSDACSB2920:
.LLSDACSE2920:
	.section	.text._ZNSt5dequeIiSaIiEED2Ev,"axG",@progbits,_ZNSt5dequeIiSaIiEED5Ev,comdat
	.size	_ZNSt5dequeIiSaIiEED2Ev, .-_ZNSt5dequeIiSaIiEED2Ev
	.weak	_ZNSt5dequeIiSaIiEED1Ev
	.set	_ZNSt5dequeIiSaIiEED1Ev,_ZNSt5dequeIiSaIiEED2Ev
	.section	.text._ZNSt5queueIiSt5dequeIiSaIiEEE4pushEOi,"axG",@progbits,_ZNSt5queueIiSt5dequeIiSaIiEEE4pushEOi,comdat
	.align 2
	.weak	_ZNSt5queueIiSt5dequeIiSaIiEEE4pushEOi
	.type	_ZNSt5queueIiSt5dequeIiSaIiEEE4pushEOi, @function
_ZNSt5queueIiSt5dequeIiSaIiEEE4pushEOi:
.LFB2922:
	.cfi_startproc
	pushq	%rbp
	.cfi_def_cfa_offset 16
	.cfi_offset 6, -16
	movq	%rsp, %rbp
	.cfi_def_cfa_register 6
	pushq	%rbx
	subq	$24, %rsp
	.cfi_offset 3, -24
	movq	%rdi, -24(%rbp)
	movq	%rsi, -32(%rbp)
	movq	-24(%rbp), %rbx
	movq	-32(%rbp), %rax
	movq	%rax, %rdi
	call	_ZSt4moveIRiEONSt16remove_referenceIT_E4typeEOS2_
	movq	%rax, %rsi
	movq	%rbx, %rdi
	call	_ZNSt5dequeIiSaIiEE9push_backEOi
	nop
	movq	-8(%rbp), %rbx
	leave
	.cfi_def_cfa 7, 8
	ret
	.cfi_endproc
.LFE2922:
	.size	_ZNSt5queueIiSt5dequeIiSaIiEEE4pushEOi, .-_ZNSt5queueIiSt5dequeIiSaIiEEE4pushEOi
	.section	.text._ZNKSt5queueIiSt5dequeIiSaIiEEE5emptyEv,"axG",@progbits,_ZNKSt5queueIiSt5dequeIiSaIiEEE5emptyEv,comdat
	.align 2
	.weak	_ZNKSt5queueIiSt5dequeIiSaIiEEE5emptyEv
	.type	_ZNKSt5queueIiSt5dequeIiSaIiEEE5emptyEv, @function
_ZNKSt5queueIiSt5dequeIiSaIiEEE5emptyEv:
.LFB2923:
	.cfi_startproc
	pushq	%rbp
	.cfi_def_cfa_offset 16
	.cfi_offset 6, -16
	movq	%rsp, %rbp
	.cfi_def_cfa_register 6
	subq	$16, %rsp
	movq	%rdi, -8(%rbp)
	movq	-8(%rbp), %rax
	movq	%rax, %rdi
	call	_ZNKSt5dequeIiSaIiEE5emptyEv
	leave
	.cfi_def_cfa 7, 8
	ret
	.cfi_endproc
.LFE2923:
	.size	_ZNKSt5queueIiSt5dequeIiSaIiEEE5emptyEv, .-_ZNKSt5queueIiSt5dequeIiSaIiEEE5emptyEv
	.section	.text._ZNSt5queueIiSt5dequeIiSaIiEEE5frontEv,"axG",@progbits,_ZNSt5queueIiSt5dequeIiSaIiEEE5frontEv,comdat
	.align 2
	.weak	_ZNSt5queueIiSt5dequeIiSaIiEEE5frontEv
	.type	_ZNSt5queueIiSt5dequeIiSaIiEEE5frontEv, @function
_ZNSt5queueIiSt5dequeIiSaIiEEE5frontEv:
.LFB2924:
	.cfi_startproc
	pushq	%rbp
	.cfi_def_cfa_offset 16
	.cfi_offset 6, -16
	movq	%rsp, %rbp
	.cfi_def_cfa_register 6
	subq	$16, %rsp
	movq	%rdi, -8(%rbp)
	movq	-8(%rbp), %rax
	movq	%rax, %rdi
	call	_ZNSt5dequeIiSaIiEE5frontEv
	leave
	.cfi_def_cfa 7, 8
	ret
	.cfi_endproc
.LFE2924:
	.size	_ZNSt5queueIiSt5dequeIiSaIiEEE5frontEv, .-_ZNSt5queueIiSt5dequeIiSaIiEEE5frontEv
	.section	.text._ZNSt5queueIiSt5dequeIiSaIiEEE3popEv,"axG",@progbits,_ZNSt5queueIiSt5dequeIiSaIiEEE3popEv,comdat
	.align 2
	.weak	_ZNSt5queueIiSt5dequeIiSaIiEEE3popEv
	.type	_ZNSt5queueIiSt5dequeIiSaIiEEE3popEv, @function
_ZNSt5queueIiSt5dequeIiSaIiEEE3popEv:
.LFB2925:
	.cfi_startproc
	pushq	%rbp
	.cfi_def_cfa_offset 16
	.cfi_offset 6, -16
	movq	%rsp, %rbp
	.cfi_def_cfa_register 6
	subq	$16, %rsp
	movq	%rdi, -8(%rbp)
	movq	-8(%rbp), %rax
	movq	%rax, %rdi
	call	_ZNSt5dequeIiSaIiEE9pop_frontEv
	nop
	leave
	.cfi_def_cfa 7, 8
	ret
	.cfi_endproc
.LFE2925:
	.size	_ZNSt5queueIiSt5dequeIiSaIiEEE3popEv, .-_ZNSt5queueIiSt5dequeIiSaIiEEE3popEv
	.section	.text._ZNSt5queueIiSt5dequeIiSaIiEEE4pushERKi,"axG",@progbits,_ZNSt5queueIiSt5dequeIiSaIiEEE4pushERKi,comdat
	.align 2
	.weak	_ZNSt5queueIiSt5dequeIiSaIiEEE4pushERKi
	.type	_ZNSt5queueIiSt5dequeIiSaIiEEE4pushERKi, @function
_ZNSt5queueIiSt5dequeIiSaIiEEE4pushERKi:
.LFB2926:
	.cfi_startproc
	pushq	%rbp
	.cfi_def_cfa_offset 16
	.cfi_offset 6, -16
	movq	%rsp, %rbp
	.cfi_def_cfa_register 6
	subq	$16, %rsp
	movq	%rdi, -8(%rbp)
	movq	%rsi, -16(%rbp)
	movq	-8(%rbp), %rax
	movq	-16(%rbp), %rdx
	movq	%rdx, %rsi
	movq	%rax, %rdi
	call	_ZNSt5dequeIiSaIiEE9push_backERKi
	nop
	leave
	.cfi_def_cfa 7, 8
	ret
	.cfi_endproc
.LFE2926:
	.size	_ZNSt5queueIiSt5dequeIiSaIiEEE4pushERKi, .-_ZNSt5queueIiSt5dequeIiSaIiEEE4pushERKi
	.section	.text._ZNSt6vectorIiSaIiEEC2EmRKS0_,"axG",@progbits,_ZNSt6vectorIiSaIiEEC5EmRKS0_,comdat
	.align 2
	.weak	_ZNSt6vectorIiSaIiEEC2EmRKS0_
	.type	_ZNSt6vectorIiSaIiEEC2EmRKS0_, @function
_ZNSt6vectorIiSaIiEEC2EmRKS0_:
.LFB2934:
	.cfi_startproc
	.cfi_personality 0x9b,DW.ref.__gxx_personality_v0
	.cfi_lsda 0x1b,.LLSDA2934
	pushq	%rbp
	.cfi_def_cfa_offset 16
	.cfi_offset 6, -16
	movq	%rsp, %rbp
	.cfi_def_cfa_register 6
	pushq	%rbx
	subq	$40, %rsp
	.cfi_offset 3, -24
	movq	%rdi, -24(%rbp)
	movq	%rsi, -32(%rbp)
	movq	%rdx, -40(%rbp)
	movq	-24(%rbp), %rbx
	movq	-40(%rbp), %rdx
	movq	-32(%rbp), %rax
	movq	%rdx, %rsi
	movq	%rax, %rdi
.LEHB11:
	call	_ZNSt6vectorIiSaIiEE17_S_check_init_lenEmRKS0_
	movq	%rax, %rcx
	movq	-40(%rbp), %rax
	movq	%rax, %rdx
	movq	%rcx, %rsi
	movq	%rbx, %rdi
	call	_ZNSt12_Vector_baseIiSaIiEEC2EmRKS0_
.LEHE11:
	movq	-32(%rbp), %rdx
	movq	-24(%rbp), %rax
	movq	%rdx, %rsi
	movq	%rax, %rdi
.LEHB12:
	call	_ZNSt6vectorIiSaIiEE21_M_default_initializeEm
.LEHE12:
	jmp	.L108
.L107:
	movq	%rax, %rbx
	movq	-24(%rbp), %rax
	movq	%rax, %rdi
	call	_ZNSt12_Vector_baseIiSaIiEED2Ev
	movq	%rbx, %rax
	movq	%rax, %rdi
.LEHB13:
	call	_Unwind_Resume@PLT
.LEHE13:
.L108:
	movq	-8(%rbp), %rbx
	leave
	.cfi_def_cfa 7, 8
	ret
	.cfi_endproc
.LFE2934:
	.section	.gcc_except_table
.LLSDA2934:
	.byte	0xff
	.byte	0xff
	.byte	0x1
	.uleb128 .LLSDACSE2934-.LLSDACSB2934
.LLSDACSB2934:
	.uleb128 .LEHB11-.LFB2934
	.uleb128 .LEHE11-.LEHB11
	.uleb128 0
	.uleb128 0
	.uleb128 .LEHB12-.LFB2934
	.uleb128 .LEHE12-.LEHB12
	.uleb128 .L107-.LFB2934
	.uleb128 0
	.uleb128 .LEHB13-.LFB2934
	.uleb128 .LEHE13-.LEHB13
	.uleb128 0
	.uleb128 0
.LLSDACSE2934:
	.section	.text._ZNSt6vectorIiSaIiEEC2EmRKS0_,"axG",@progbits,_ZNSt6vectorIiSaIiEEC5EmRKS0_,comdat
	.size	_ZNSt6vectorIiSaIiEEC2EmRKS0_, .-_ZNSt6vectorIiSaIiEEC2EmRKS0_
	.weak	_ZNSt6vectorIiSaIiEEC1EmRKS0_
	.set	_ZNSt6vectorIiSaIiEEC1EmRKS0_,_ZNSt6vectorIiSaIiEEC2EmRKS0_
	.section	.text._ZNSt6vectorIiSaIiEED2Ev,"axG",@progbits,_ZNSt6vectorIiSaIiEED5Ev,comdat
	.align 2
	.weak	_ZNSt6vectorIiSaIiEED2Ev
	.type	_ZNSt6vectorIiSaIiEED2Ev, @function
_ZNSt6vectorIiSaIiEED2Ev:
.LFB2937:
	.cfi_startproc
	.cfi_personality 0x9b,DW.ref.__gxx_personality_v0
	.cfi_lsda 0x1b,.LLSDA2937
	pushq	%rbp
	.cfi_def_cfa_offset 16
	.cfi_offset 6, -16
	movq	%rsp, %rbp
	.cfi_def_cfa_register 6
	subq	$48, %rsp
	movq	%rdi, -40(%rbp)
	movq	-40(%rbp), %rax
	movq	%rax, %rdi
	call	_ZNSt12_Vector_baseIiSaIiEE19_M_get_Tp_allocatorEv
	movq	-40(%rbp), %rdx
	movq	8(%rdx), %rdx
	movq	-40(%rbp), %rcx
	movq	(%rcx), %rcx
	movq	%rcx, -24(%rbp)
	movq	%rdx, -16(%rbp)
	movq	%rax, -8(%rbp)
	movq	-16(%rbp), %rdx
	movq	-24(%rbp), %rax
	movq	%rdx, %rsi
	movq	%rax, %rdi
	call	_ZSt8_DestroyIPiEvT_S1_
	nop
	movq	-40(%rbp), %rax
	movq	%rax, %rdi
	call	_ZNSt12_Vector_baseIiSaIiEED2Ev
	nop
	leave
	.cfi_def_cfa 7, 8
	ret
	.cfi_endproc
.LFE2937:
	.section	.gcc_except_table
.LLSDA2937:
	.byte	0xff
	.byte	0xff
	.byte	0x1
	.uleb128 .LLSDACSE2937-.LLSDACSB2937
.LLSDACSB2937:
.LLSDACSE2937:
	.section	.text._ZNSt6vectorIiSaIiEED2Ev,"axG",@progbits,_ZNSt6vectorIiSaIiEED5Ev,comdat
	.size	_ZNSt6vectorIiSaIiEED2Ev, .-_ZNSt6vectorIiSaIiEED2Ev
	.weak	_ZNSt6vectorIiSaIiEED1Ev
	.set	_ZNSt6vectorIiSaIiEED1Ev,_ZNSt6vectorIiSaIiEED2Ev
	.section	.text._ZNSt6vectorIiSaIiEEC2ERKS1_,"axG",@progbits,_ZNSt6vectorIiSaIiEEC5ERKS1_,comdat
	.align 2
	.weak	_ZNSt6vectorIiSaIiEEC2ERKS1_
	.type	_ZNSt6vectorIiSaIiEEC2ERKS1_, @function
_ZNSt6vectorIiSaIiEEC2ERKS1_:
.LFB2940:
	.cfi_startproc
	.cfi_personality 0x9b,DW.ref.__gxx_personality_v0
	.cfi_lsda 0x1b,.LLSDA2940
	pushq	%rbp
	.cfi_def_cfa_offset 16
	.cfi_offset 6, -16
	movq	%rsp, %rbp
	.cfi_def_cfa_register 6
	pushq	%r13
	pushq	%r12
	pushq	%rbx
	subq	$88, %rsp
	.cfi_offset 13, -24
	.cfi_offset 12, -32
	.cfi_offset 3, -40
	movq	%rdi, -104(%rbp)
	movq	%rsi, -112(%rbp)
	movq	%fs:40, %rax
	movq	%rax, -40(%rbp)
	xorl	%eax, %eax
	movq	-104(%rbp), %rbx
	movq	-112(%rbp), %rax
	movq	%rax, %rdi
	call	_ZNKSt12_Vector_baseIiSaIiEE19_M_get_Tp_allocatorEv
	movq	%rax, -88(%rbp)
	leaq	-89(%rbp), %rax
	movq	-88(%rbp), %rdx
	movq	%rdx, -80(%rbp)
	movq	%rax, -72(%rbp)
	movq	-80(%rbp), %rax
	movq	%rax, -64(%rbp)
	movq	-72(%rbp), %rax
	movq	%rax, -56(%rbp)
	movq	-64(%rbp), %rax
	movq	%rax, -48(%rbp)
	nop
	nop
	nop
	nop
	movq	-112(%rbp), %rax
	movq	%rax, %rdi
	call	_ZNKSt6vectorIiSaIiEE4sizeEv
	movq	%rax, %rcx
	leaq	-89(%rbp), %rax
	movq	%rax, %rdx
	movq	%rcx, %rsi
	movq	%rbx, %rdi
.LEHB14:
	call	_ZNSt12_Vector_baseIiSaIiEEC2EmRKS0_
.LEHE14:
	leaq	-89(%rbp), %rax
	movq	%rax, %rdi
	call	_ZNSt15__new_allocatorIiED2Ev
	nop
	movq	-104(%rbp), %rax
	movq	%rax, %rdi
	call	_ZNSt12_Vector_baseIiSaIiEE19_M_get_Tp_allocatorEv
	movq	%rax, %r13
	movq	-104(%rbp), %rax
	movq	(%rax), %rbx
	movq	-112(%rbp), %rax
	movq	%rax, %rdi
	call	_ZNKSt6vectorIiSaIiEE3endEv
	movq	%rax, %r12
	movq	-112(%rbp), %rax
	movq	%rax, %rdi
	call	_ZNKSt6vectorIiSaIiEE5beginEv
	movq	%r13, %rcx
	movq	%rbx, %rdx
	movq	%r12, %rsi
	movq	%rax, %rdi
.LEHB15:
	call	_ZSt22__uninitialized_copy_aIN9__gnu_cxx17__normal_iteratorIPKiSt6vectorIiSaIiEEEEPiiET0_T_SA_S9_RSaIT1_E
.LEHE15:
	movq	-104(%rbp), %rdx
	movq	%rax, 8(%rdx)
	nop
	movq	-40(%rbp), %rax
	subq	%fs:40, %rax
	je	.L117
	jmp	.L120
.L118:
	movq	%rax, %rbx
	leaq	-89(%rbp), %rax
	movq	%rax, %rdi
	call	_ZNSt15__new_allocatorIiED2Ev
	nop
	movq	%rbx, %rax
	movq	-40(%rbp), %rdx
	subq	%fs:40, %rdx
	je	.L114
	call	__stack_chk_fail@PLT
.L114:
	movq	%rax, %rdi
.LEHB16:
	call	_Unwind_Resume@PLT
.L119:
	movq	%rax, %rbx
	movq	-104(%rbp), %rax
	movq	%rax, %rdi
	call	_ZNSt12_Vector_baseIiSaIiEED2Ev
	movq	%rbx, %rax
	movq	-40(%rbp), %rdx
	subq	%fs:40, %rdx
	je	.L116
	call	__stack_chk_fail@PLT
.L116:
	movq	%rax, %rdi
	call	_Unwind_Resume@PLT
.LEHE16:
.L120:
	call	__stack_chk_fail@PLT
.L117:
	addq	$88, %rsp
	popq	%rbx
	popq	%r12
	popq	%r13
	popq	%rbp
	.cfi_def_cfa 7, 8
	ret
	.cfi_endproc
.LFE2940:
	.section	.gcc_except_table
.LLSDA2940:
	.byte	0xff
	.byte	0xff
	.byte	0x1
	.uleb128 .LLSDACSE2940-.LLSDACSB2940
.LLSDACSB2940:
	.uleb128 .LEHB14-.LFB2940
	.uleb128 .LEHE14-.LEHB14
	.uleb128 .L118-.LFB2940
	.uleb128 0
	.uleb128 .LEHB15-.LFB2940
	.uleb128 .LEHE15-.LEHB15
	.uleb128 .L119-.LFB2940
	.uleb128 0
	.uleb128 .LEHB16-.LFB2940
	.uleb128 .LEHE16-.LEHB16
	.uleb128 0
	.uleb128 0
.LLSDACSE2940:
	.section	.text._ZNSt6vectorIiSaIiEEC2ERKS1_,"axG",@progbits,_ZNSt6vectorIiSaIiEEC5ERKS1_,comdat
	.size	_ZNSt6vectorIiSaIiEEC2ERKS1_, .-_ZNSt6vectorIiSaIiEEC2ERKS1_
	.weak	_ZNSt6vectorIiSaIiEEC1ERKS1_
	.set	_ZNSt6vectorIiSaIiEEC1ERKS1_,_ZNSt6vectorIiSaIiEEC2ERKS1_
	.section	.text._ZNSt6vectorIN7segtree4nodeESaIS1_EE3endEv,"axG",@progbits,_ZNSt6vectorIN7segtree4nodeESaIS1_EE3endEv,comdat
	.align 2
	.weak	_ZNSt6vectorIN7segtree4nodeESaIS1_EE3endEv
	.type	_ZNSt6vectorIN7segtree4nodeESaIS1_EE3endEv, @function
_ZNSt6vectorIN7segtree4nodeESaIS1_EE3endEv:
.LFB3045:
	.cfi_startproc
	pushq	%rbp
	.cfi_def_cfa_offset 16
	.cfi_offset 6, -16
	movq	%rsp, %rbp
	.cfi_def_cfa_register 6
	subq	$32, %rsp
	movq	%rdi, -24(%rbp)
	movq	%fs:40, %rax
	movq	%rax, -8(%rbp)
	xorl	%eax, %eax
	movq	-24(%rbp), %rax
	leaq	8(%rax), %rdx
	leaq	-16(%rbp), %rax
	movq	%rdx, %rsi
	movq	%rax, %rdi
	call	_ZN9__gnu_cxx17__normal_iteratorIPN7segtree4nodeESt6vectorIS2_SaIS2_EEEC1ERKS3_
	movq	-16(%rbp), %rax
	movq	-8(%rbp), %rdx
	subq	%fs:40, %rdx
	je	.L123
	call	__stack_chk_fail@PLT
.L123:
	leave
	.cfi_def_cfa 7, 8
	ret
	.cfi_endproc
.LFE3045:
	.size	_ZNSt6vectorIN7segtree4nodeESaIS1_EE3endEv, .-_ZNSt6vectorIN7segtree4nodeESaIS1_EE3endEv
	.section	.rodata
.LC1:
	.string	"vector::_M_realloc_insert"
	.section	.text._ZNSt6vectorIN7segtree4nodeESaIS1_EE17_M_realloc_insertIJRKS1_EEEvN9__gnu_cxx17__normal_iteratorIPS1_S3_EEDpOT_,"axG",@progbits,_ZNSt6vectorIN7segtree4nodeESaIS1_EE17_M_realloc_insertIJRKS1_EEEvN9__gnu_cxx17__normal_iteratorIPS1_S3_EEDpOT_,comdat
	.align 2
	.weak	_ZNSt6vectorIN7segtree4nodeESaIS1_EE17_M_realloc_insertIJRKS1_EEEvN9__gnu_cxx17__normal_iteratorIPS1_S3_EEDpOT_
	.type	_ZNSt6vectorIN7segtree4nodeESaIS1_EE17_M_realloc_insertIJRKS1_EEEvN9__gnu_cxx17__normal_iteratorIPS1_S3_EEDpOT_, @function
_ZNSt6vectorIN7segtree4nodeESaIS1_EE17_M_realloc_insertIJRKS1_EEEvN9__gnu_cxx17__normal_iteratorIPS1_S3_EEDpOT_:
.LFB3046:
	.cfi_startproc
	pushq	%rbp
	.cfi_def_cfa_offset 16
	.cfi_offset 6, -16
	movq	%rsp, %rbp
	.cfi_def_cfa_register 6
	pushq	%rbx
	subq	$152, %rsp
	.cfi_offset 3, -24
	movq	%rdi, -136(%rbp)
	movq	%rsi, -144(%rbp)
	movq	%rdx, -152(%rbp)
	movq	%fs:40, %rax
	movq	%rax, -24(%rbp)
	xorl	%eax, %eax
	movq	-136(%rbp), %rax
	leaq	.LC1(%rip), %rdx
	movl	$1, %esi
	movq	%rax, %rdi
	call	_ZNKSt6vectorIN7segtree4nodeESaIS1_EE12_M_check_lenEmPKc
	movq	%rax, -120(%rbp)
	movq	-136(%rbp), %rax
	movq	(%rax), %rax
	movq	%rax, -112(%rbp)
	movq	-136(%rbp), %rax
	movq	8(%rax), %rax
	movq	%rax, -104(%rbp)
	movq	-136(%rbp), %rax
	movq	%rax, %rdi
	call	_ZNSt6vectorIN7segtree4nodeESaIS1_EE5beginEv
	movq	%rax, -128(%rbp)
	leaq	-128(%rbp), %rdx
	leaq	-144(%rbp), %rax
	movq	%rdx, %rsi
	movq	%rax, %rdi
	call	_ZN9__gnu_cxxmiIPN7segtree4nodeESt6vectorIS2_SaIS2_EEEENS_17__normal_iteratorIT_T0_E15difference_typeERKSA_SD_
	movq	%rax, -96(%rbp)
	movq	-136(%rbp), %rax
	movq	-120(%rbp), %rdx
	movq	%rdx, %rsi
	movq	%rax, %rdi
	call	_ZNSt12_Vector_baseIN7segtree4nodeESaIS1_EE11_M_allocateEm
	movq	%rax, -88(%rbp)
	movq	-88(%rbp), %rax
	movq	%rax, -80(%rbp)
	movq	-152(%rbp), %rax
	movq	%rax, %rdi
	call	_ZSt7forwardIRKN7segtree4nodeEEOT_RNSt16remove_referenceIS4_E4typeE
	movq	%rax, %rcx
	movq	-96(%rbp), %rdx
	movq	%rdx, %rax
	addq	%rax, %rax
	addq	%rdx, %rax
	salq	$3, %rax
	movq	%rax, %rdx
	movq	-88(%rbp), %rax
	addq	%rax, %rdx
	movq	-136(%rbp), %rax
	movq	%rax, -72(%rbp)
	movq	%rdx, -64(%rbp)
	movq	%rcx, -56(%rbp)
	movq	-56(%rbp), %rax
	movq	%rax, %rdi
	call	_ZSt7forwardIRKN7segtree4nodeEEOT_RNSt16remove_referenceIS4_E4typeE
	movq	-72(%rbp), %rdx
	movq	%rdx, -48(%rbp)
	movq	-64(%rbp), %rdx
	movq	%rdx, -40(%rbp)
	movq	%rax, -32(%rbp)
	movq	-40(%rbp), %rax
	movq	%rax, %rsi
	movl	$24, %edi
	call	_ZnwmPv
	movq	%rax, %rbx
	movq	-32(%rbp), %rax
	movq	%rax, %rdi
	call	_ZSt7forwardIRKN7segtree4nodeEEOT_RNSt16remove_referenceIS4_E4typeE
	movq	%rax, %rcx
	movq	(%rcx), %rax
	movq	8(%rcx), %rdx
	movq	%rax, (%rbx)
	movq	%rdx, 8(%rbx)
	movq	16(%rcx), %rax
	movq	%rax, 16(%rbx)
	nop
	nop
	movq	$0, -80(%rbp)
	movq	-136(%rbp), %rax
	movq	%rax, %rdi
	call	_ZNSt12_Vector_baseIN7segtree4nodeESaIS1_EE19_M_get_Tp_allocatorEv
	movq	%rax, %rbx
	leaq	-144(%rbp), %rax
	movq	%rax, %rdi
	call	_ZNK9__gnu_cxx17__normal_iteratorIPN7segtree4nodeESt6vectorIS2_SaIS2_EEE4baseEv
	movq	(%rax), %rsi
	movq	-88(%rbp), %rdx
	movq	-112(%rbp), %rax
	movq	%rbx, %rcx
	movq	%rax, %rdi
	call	_ZNSt6vectorIN7segtree4nodeESaIS1_EE11_S_relocateEPS1_S4_S4_RS2_
	movq	%rax, -80(%rbp)
	addq	$24, -80(%rbp)
	movq	-136(%rbp), %rax
	movq	%rax, %rdi
	call	_ZNSt12_Vector_baseIN7segtree4nodeESaIS1_EE19_M_get_Tp_allocatorEv
	movq	%rax, %rbx
	leaq	-144(%rbp), %rax
	movq	%rax, %rdi
	call	_ZNK9__gnu_cxx17__normal_iteratorIPN7segtree4nodeESt6vectorIS2_SaIS2_EEE4baseEv
	movq	(%rax), %rax
	movq	-80(%rbp), %rdx
	movq	-104(%rbp), %rsi
	movq	%rbx, %rcx
	movq	%rax, %rdi
	call	_ZNSt6vectorIN7segtree4nodeESaIS1_EE11_S_relocateEPS1_S4_S4_RS2_
	movq	%rax, -80(%rbp)
	movq	-136(%rbp), %rax
	movq	-136(%rbp), %rdx
	movq	16(%rdx), %rdx
	subq	-112(%rbp), %rdx
	movq	%rdx, %rcx
	sarq	$3, %rcx
	movabsq	$-6148914691236517205, %rdx
	imulq	%rcx, %rdx
	movq	-112(%rbp), %rcx
	movq	%rcx, %rsi
	movq	%rax, %rdi
	call	_ZNSt12_Vector_baseIN7segtree4nodeESaIS1_EE13_M_deallocateEPS1_m
	movq	-136(%rbp), %rax
	movq	-88(%rbp), %rdx
	movq	%rdx, (%rax)
	movq	-136(%rbp), %rax
	movq	-80(%rbp), %rdx
	movq	%rdx, 8(%rax)
	movq	-120(%rbp), %rdx
	movq	%rdx, %rax
	addq	%rax, %rax
	addq	%rdx, %rax
	salq	$3, %rax
	movq	%rax, %rdx
	movq	-88(%rbp), %rax
	addq	%rax, %rdx
	movq	-136(%rbp), %rax
	movq	%rdx, 16(%rax)
	nop
	movq	-24(%rbp), %rax
	subq	%fs:40, %rax
	je	.L125
	call	__stack_chk_fail@PLT
.L125:
	movq	-8(%rbp), %rbx
	leave
	.cfi_def_cfa 7, 8
	ret
	.cfi_endproc
.LFE3046:
	.size	_ZNSt6vectorIN7segtree4nodeESaIS1_EE17_M_realloc_insertIJRKS1_EEEvN9__gnu_cxx17__normal_iteratorIPS1_S3_EEDpOT_, .-_ZNSt6vectorIN7segtree4nodeESaIS1_EE17_M_realloc_insertIJRKS1_EEEvN9__gnu_cxx17__normal_iteratorIPS1_S3_EEDpOT_
	.section	.text._ZNSt12_Vector_baseIN7segtree4nodeESaIS1_EE17_Vector_impl_dataC2Ev,"axG",@progbits,_ZNSt12_Vector_baseIN7segtree4nodeESaIS1_EE17_Vector_impl_dataC5Ev,comdat
	.align 2
	.weak	_ZNSt12_Vector_baseIN7segtree4nodeESaIS1_EE17_Vector_impl_dataC2Ev
	.type	_ZNSt12_Vector_baseIN7segtree4nodeESaIS1_EE17_Vector_impl_dataC2Ev, @function
_ZNSt12_Vector_baseIN7segtree4nodeESaIS1_EE17_Vector_impl_dataC2Ev:
.LFB3051:
	.cfi_startproc
	pushq	%rbp
	.cfi_def_cfa_offset 16
	.cfi_offset 6, -16
	movq	%rsp, %rbp
	.cfi_def_cfa_register 6
	movq	%rdi, -8(%rbp)
	movq	-8(%rbp), %rax
	movq	$0, (%rax)
	movq	-8(%rbp), %rax
	movq	$0, 8(%rax)
	movq	-8(%rbp), %rax
	movq	$0, 16(%rax)
	nop
	popq	%rbp
	.cfi_def_cfa 7, 8
	ret
	.cfi_endproc
.LFE3051:
	.size	_ZNSt12_Vector_baseIN7segtree4nodeESaIS1_EE17_Vector_impl_dataC2Ev, .-_ZNSt12_Vector_baseIN7segtree4nodeESaIS1_EE17_Vector_impl_dataC2Ev
	.weak	_ZNSt12_Vector_baseIN7segtree4nodeESaIS1_EE17_Vector_impl_dataC1Ev
	.set	_ZNSt12_Vector_baseIN7segtree4nodeESaIS1_EE17_Vector_impl_dataC1Ev,_ZNSt12_Vector_baseIN7segtree4nodeESaIS1_EE17_Vector_impl_dataC2Ev
	.section	.text._ZNSt15__new_allocatorIN7segtree4nodeEED2Ev,"axG",@progbits,_ZNSt15__new_allocatorIN7segtree4nodeEED5Ev,comdat
	.align 2
	.weak	_ZNSt15__new_allocatorIN7segtree4nodeEED2Ev
	.type	_ZNSt15__new_allocatorIN7segtree4nodeEED2Ev, @function
_ZNSt15__new_allocatorIN7segtree4nodeEED2Ev:
.LFB3054:
	.cfi_startproc
	pushq	%rbp
	.cfi_def_cfa_offset 16
	.cfi_offset 6, -16
	movq	%rsp, %rbp
	.cfi_def_cfa_register 6
	movq	%rdi, -8(%rbp)
	nop
	popq	%rbp
	.cfi_def_cfa 7, 8
	ret
	.cfi_endproc
.LFE3054:
	.size	_ZNSt15__new_allocatorIN7segtree4nodeEED2Ev, .-_ZNSt15__new_allocatorIN7segtree4nodeEED2Ev
	.weak	_ZNSt15__new_allocatorIN7segtree4nodeEED1Ev
	.set	_ZNSt15__new_allocatorIN7segtree4nodeEED1Ev,_ZNSt15__new_allocatorIN7segtree4nodeEED2Ev
	.section	.text._ZNSt12_Vector_baseIN7segtree4nodeESaIS1_EE13_M_deallocateEPS1_m,"axG",@progbits,_ZNSt12_Vector_baseIN7segtree4nodeESaIS1_EE13_M_deallocateEPS1_m,comdat
	.align 2
	.weak	_ZNSt12_Vector_baseIN7segtree4nodeESaIS1_EE13_M_deallocateEPS1_m
	.type	_ZNSt12_Vector_baseIN7segtree4nodeESaIS1_EE13_M_deallocateEPS1_m, @function
_ZNSt12_Vector_baseIN7segtree4nodeESaIS1_EE13_M_deallocateEPS1_m:
.LFB3056:
	.cfi_startproc
	pushq	%rbp
	.cfi_def_cfa_offset 16
	.cfi_offset 6, -16
	movq	%rsp, %rbp
	.cfi_def_cfa_register 6
	subq	$64, %rsp
	movq	%rdi, -40(%rbp)
	movq	%rsi, -48(%rbp)
	movq	%rdx, -56(%rbp)
	cmpq	$0, -48(%rbp)
	je	.L130
	movq	-40(%rbp), %rax
	movq	%rax, -24(%rbp)
	movq	-48(%rbp), %rax
	movq	%rax, -16(%rbp)
	movq	-56(%rbp), %rax
	movq	%rax, -8(%rbp)
	movq	-8(%rbp), %rdx
	movq	-16(%rbp), %rcx
	movq	-24(%rbp), %rax
	movq	%rcx, %rsi
	movq	%rax, %rdi
	call	_ZNSt15__new_allocatorIN7segtree4nodeEE10deallocateEPS1_m
	nop
.L130:
	nop
	leave
	.cfi_def_cfa 7, 8
	ret
	.cfi_endproc
.LFE3056:
	.size	_ZNSt12_Vector_baseIN7segtree4nodeESaIS1_EE13_M_deallocateEPS1_m, .-_ZNSt12_Vector_baseIN7segtree4nodeESaIS1_EE13_M_deallocateEPS1_m
	.section	.text._ZNSt12_Vector_baseIN7segtree4nodeESaIS1_EE19_M_get_Tp_allocatorEv,"axG",@progbits,_ZNSt12_Vector_baseIN7segtree4nodeESaIS1_EE19_M_get_Tp_allocatorEv,comdat
	.align 2
	.weak	_ZNSt12_Vector_baseIN7segtree4nodeESaIS1_EE19_M_get_Tp_allocatorEv
	.type	_ZNSt12_Vector_baseIN7segtree4nodeESaIS1_EE19_M_get_Tp_allocatorEv, @function
_ZNSt12_Vector_baseIN7segtree4nodeESaIS1_EE19_M_get_Tp_allocatorEv:
.LFB3057:
	.cfi_startproc
	pushq	%rbp
	.cfi_def_cfa_offset 16
	.cfi_offset 6, -16
	movq	%rsp, %rbp
	.cfi_def_cfa_register 6
	movq	%rdi, -8(%rbp)
	movq	-8(%rbp), %rax
	popq	%rbp
	.cfi_def_cfa 7, 8
	ret
	.cfi_endproc
.LFE3057:
	.size	_ZNSt12_Vector_baseIN7segtree4nodeESaIS1_EE19_M_get_Tp_allocatorEv, .-_ZNSt12_Vector_baseIN7segtree4nodeESaIS1_EE19_M_get_Tp_allocatorEv
	.section	.text._ZNKSt6vectorIN7segtree4nodeESaIS1_EE8max_sizeEv,"axG",@progbits,_ZNKSt6vectorIN7segtree4nodeESaIS1_EE8max_sizeEv,comdat
	.align 2
	.weak	_ZNKSt6vectorIN7segtree4nodeESaIS1_EE8max_sizeEv
	.type	_ZNKSt6vectorIN7segtree4nodeESaIS1_EE8max_sizeEv, @function
_ZNKSt6vectorIN7segtree4nodeESaIS1_EE8max_sizeEv:
.LFB3059:
	.cfi_startproc
	pushq	%rbp
	.cfi_def_cfa_offset 16
	.cfi_offset 6, -16
	movq	%rsp, %rbp
	.cfi_def_cfa_register 6
	subq	$16, %rsp
	movq	%rdi, -8(%rbp)
	movq	-8(%rbp), %rax
	movq	%rax, %rdi
	call	_ZNKSt12_Vector_baseIN7segtree4nodeESaIS1_EE19_M_get_Tp_allocatorEv
	movq	%rax, %rdi
	call	_ZNSt6vectorIN7segtree4nodeESaIS1_EE11_S_max_sizeERKS2_
	leave
	.cfi_def_cfa 7, 8
	ret
	.cfi_endproc
.LFE3059:
	.size	_ZNKSt6vectorIN7segtree4nodeESaIS1_EE8max_sizeEv, .-_ZNKSt6vectorIN7segtree4nodeESaIS1_EE8max_sizeEv
	.section	.text._ZNKSt6vectorIN7segtree4nodeESaIS1_EE8capacityEv,"axG",@progbits,_ZNKSt6vectorIN7segtree4nodeESaIS1_EE8capacityEv,comdat
	.align 2
	.weak	_ZNKSt6vectorIN7segtree4nodeESaIS1_EE8capacityEv
	.type	_ZNKSt6vectorIN7segtree4nodeESaIS1_EE8capacityEv, @function
_ZNKSt6vectorIN7segtree4nodeESaIS1_EE8capacityEv:
.LFB3060:
	.cfi_startproc
	pushq	%rbp
	.cfi_def_cfa_offset 16
	.cfi_offset 6, -16
	movq	%rsp, %rbp
	.cfi_def_cfa_register 6
	movq	%rdi, -8(%rbp)
	movq	-8(%rbp), %rax
	movq	16(%rax), %rdx
	movq	-8(%rbp), %rax
	movq	(%rax), %rax
	subq	%rax, %rdx
	sarq	$3, %rdx
	movabsq	$-6148914691236517205, %rax
	imulq	%rdx, %rax
	popq	%rbp
	.cfi_def_cfa 7, 8
	ret
	.cfi_endproc
.LFE3060:
	.size	_ZNKSt6vectorIN7segtree4nodeESaIS1_EE8capacityEv, .-_ZNKSt6vectorIN7segtree4nodeESaIS1_EE8capacityEv
	.section	.text._ZNSt12_Vector_baseIN7segtree4nodeESaIS1_EE11_M_allocateEm,"axG",@progbits,_ZNSt12_Vector_baseIN7segtree4nodeESaIS1_EE11_M_allocateEm,comdat
	.align 2
	.weak	_ZNSt12_Vector_baseIN7segtree4nodeESaIS1_EE11_M_allocateEm
	.type	_ZNSt12_Vector_baseIN7segtree4nodeESaIS1_EE11_M_allocateEm, @function
_ZNSt12_Vector_baseIN7segtree4nodeESaIS1_EE11_M_allocateEm:
.LFB3061:
	.cfi_startproc
	pushq	%rbp
	.cfi_def_cfa_offset 16
	.cfi_offset 6, -16
	movq	%rsp, %rbp
	.cfi_def_cfa_register 6
	subq	$32, %rsp
	movq	%rdi, -24(%rbp)
	movq	%rsi, -32(%rbp)
	cmpq	$0, -32(%rbp)
	je	.L138
	movq	-24(%rbp), %rax
	movq	%rax, -16(%rbp)
	movq	-32(%rbp), %rax
	movq	%rax, -8(%rbp)
	movq	-8(%rbp), %rcx
	movq	-16(%rbp), %rax
	movl	$0, %edx
	movq	%rcx, %rsi
	movq	%rax, %rdi
	call	_ZNSt15__new_allocatorIN7segtree4nodeEE8allocateEmPKv
	nop
	jmp	.L140
.L138:
	movl	$0, %eax
.L140:
	leave
	.cfi_def_cfa 7, 8
	ret
	.cfi_endproc
.LFE3061:
	.size	_ZNSt12_Vector_baseIN7segtree4nodeESaIS1_EE11_M_allocateEm, .-_ZNSt12_Vector_baseIN7segtree4nodeESaIS1_EE11_M_allocateEm
	.section	.text._ZNSt6vectorIN7segtree4nodeESaIS1_EE11_S_relocateEPS1_S4_S4_RS2_,"axG",@progbits,_ZNSt6vectorIN7segtree4nodeESaIS1_EE11_S_relocateEPS1_S4_S4_RS2_,comdat
	.weak	_ZNSt6vectorIN7segtree4nodeESaIS1_EE11_S_relocateEPS1_S4_S4_RS2_
	.type	_ZNSt6vectorIN7segtree4nodeESaIS1_EE11_S_relocateEPS1_S4_S4_RS2_, @function
_ZNSt6vectorIN7segtree4nodeESaIS1_EE11_S_relocateEPS1_S4_S4_RS2_:
.LFB3062:
	.cfi_startproc
	pushq	%rbp
	.cfi_def_cfa_offset 16
	.cfi_offset 6, -16
	movq	%rsp, %rbp
	.cfi_def_cfa_register 6
	subq	$32, %rsp
	movq	%rdi, -8(%rbp)
	movq	%rsi, -16(%rbp)
	movq	%rdx, -24(%rbp)
	movq	%rcx, -32(%rbp)
	movq	-32(%rbp), %rcx
	movq	-24(%rbp), %rdx
	movq	-16(%rbp), %rsi
	movq	-8(%rbp), %rax
	movq	%rax, %rdi
	call	_ZSt12__relocate_aIPN7segtree4nodeES2_SaIS1_EET0_T_S5_S4_RT1_
	leave
	.cfi_def_cfa 7, 8
	ret
	.cfi_endproc
.LFE3062:
	.size	_ZNSt6vectorIN7segtree4nodeESaIS1_EE11_S_relocateEPS1_S4_S4_RS2_, .-_ZNSt6vectorIN7segtree4nodeESaIS1_EE11_S_relocateEPS1_S4_S4_RS2_
	.section	.text._ZNSt11_Deque_baseIiSaIiEE11_Deque_implD2Ev,"axG",@progbits,_ZNSt11_Deque_baseIiSaIiEE11_Deque_implD5Ev,comdat
	.align 2
	.weak	_ZNSt11_Deque_baseIiSaIiEE11_Deque_implD2Ev
	.type	_ZNSt11_Deque_baseIiSaIiEE11_Deque_implD2Ev, @function
_ZNSt11_Deque_baseIiSaIiEE11_Deque_implD2Ev:
.LFB3066:
	.cfi_startproc
	pushq	%rbp
	.cfi_def_cfa_offset 16
	.cfi_offset 6, -16
	movq	%rsp, %rbp
	.cfi_def_cfa_register 6
	subq	$32, %rsp
	movq	%rdi, -24(%rbp)
	movq	-24(%rbp), %rax
	movq	%rax, -8(%rbp)
	movq	-8(%rbp), %rax
	movq	%rax, %rdi
	call	_ZNSt15__new_allocatorIiED2Ev
	nop
	nop
	leave
	.cfi_def_cfa 7, 8
	ret
	.cfi_endproc
.LFE3066:
	.size	_ZNSt11_Deque_baseIiSaIiEE11_Deque_implD2Ev, .-_ZNSt11_Deque_baseIiSaIiEE11_Deque_implD2Ev
	.weak	_ZNSt11_Deque_baseIiSaIiEE11_Deque_implD1Ev
	.set	_ZNSt11_Deque_baseIiSaIiEE11_Deque_implD1Ev,_ZNSt11_Deque_baseIiSaIiEE11_Deque_implD2Ev
	.section	.text._ZNSt11_Deque_baseIiSaIiEEC2Ev,"axG",@progbits,_ZNSt11_Deque_baseIiSaIiEEC5Ev,comdat
	.align 2
	.weak	_ZNSt11_Deque_baseIiSaIiEEC2Ev
	.type	_ZNSt11_Deque_baseIiSaIiEEC2Ev, @function
_ZNSt11_Deque_baseIiSaIiEEC2Ev:
.LFB3068:
	.cfi_startproc
	.cfi_personality 0x9b,DW.ref.__gxx_personality_v0
	.cfi_lsda 0x1b,.LLSDA3068
	pushq	%rbp
	.cfi_def_cfa_offset 16
	.cfi_offset 6, -16
	movq	%rsp, %rbp
	.cfi_def_cfa_register 6
	pushq	%rbx
	subq	$24, %rsp
	.cfi_offset 3, -24
	movq	%rdi, -24(%rbp)
	movq	-24(%rbp), %rax
	movq	%rax, %rdi
	call	_ZNSt11_Deque_baseIiSaIiEE11_Deque_implC1Ev
	movq	-24(%rbp), %rax
	movl	$0, %esi
	movq	%rax, %rdi
.LEHB17:
	call	_ZNSt11_Deque_baseIiSaIiEE17_M_initialize_mapEm
.LEHE17:
	jmp	.L148
.L147:
	movq	%rax, %rbx
	movq	-24(%rbp), %rax
	movq	%rax, %rdi
	call	_ZNSt11_Deque_baseIiSaIiEE11_Deque_implD1Ev
	movq	%rbx, %rax
	movq	%rax, %rdi
.LEHB18:
	call	_Unwind_Resume@PLT
.LEHE18:
.L148:
	movq	-8(%rbp), %rbx
	leave
	.cfi_def_cfa 7, 8
	ret
	.cfi_endproc
.LFE3068:
	.section	.gcc_except_table
.LLSDA3068:
	.byte	0xff
	.byte	0xff
	.byte	0x1
	.uleb128 .LLSDACSE3068-.LLSDACSB3068
.LLSDACSB3068:
	.uleb128 .LEHB17-.LFB3068
	.uleb128 .LEHE17-.LEHB17
	.uleb128 .L147-.LFB3068
	.uleb128 0
	.uleb128 .LEHB18-.LFB3068
	.uleb128 .LEHE18-.LEHB18
	.uleb128 0
	.uleb128 0
.LLSDACSE3068:
	.section	.text._ZNSt11_Deque_baseIiSaIiEEC2Ev,"axG",@progbits,_ZNSt11_Deque_baseIiSaIiEEC5Ev,comdat
	.size	_ZNSt11_Deque_baseIiSaIiEEC2Ev, .-_ZNSt11_Deque_baseIiSaIiEEC2Ev
	.weak	_ZNSt11_Deque_baseIiSaIiEEC1Ev
	.set	_ZNSt11_Deque_baseIiSaIiEEC1Ev,_ZNSt11_Deque_baseIiSaIiEEC2Ev
	.section	.text._ZNSt11_Deque_baseIiSaIiEED2Ev,"axG",@progbits,_ZNSt11_Deque_baseIiSaIiEED5Ev,comdat
	.align 2
	.weak	_ZNSt11_Deque_baseIiSaIiEED2Ev
	.type	_ZNSt11_Deque_baseIiSaIiEED2Ev, @function
_ZNSt11_Deque_baseIiSaIiEED2Ev:
.LFB3071:
	.cfi_startproc
	pushq	%rbp
	.cfi_def_cfa_offset 16
	.cfi_offset 6, -16
	movq	%rsp, %rbp
	.cfi_def_cfa_register 6
	subq	$16, %rsp
	movq	%rdi, -8(%rbp)
	movq	-8(%rbp), %rax
	movq	(%rax), %rax
	testq	%rax, %rax
	je	.L150
	movq	-8(%rbp), %rax
	movq	72(%rax), %rax
	leaq	8(%rax), %rdx
	movq	-8(%rbp), %rax
	movq	40(%rax), %rcx
	movq	-8(%rbp), %rax
	movq	%rcx, %rsi
	movq	%rax, %rdi
	call	_ZNSt11_Deque_baseIiSaIiEE16_M_destroy_nodesEPPiS3_
	movq	-8(%rbp), %rax
	movq	8(%rax), %rdx
	movq	-8(%rbp), %rax
	movq	(%rax), %rcx
	movq	-8(%rbp), %rax
	movq	%rcx, %rsi
	movq	%rax, %rdi
	call	_ZNSt11_Deque_baseIiSaIiEE17_M_deallocate_mapEPPim
.L150:
	movq	-8(%rbp), %rax
	movq	%rax, %rdi
	call	_ZNSt11_Deque_baseIiSaIiEE11_Deque_implD1Ev
	nop
	leave
	.cfi_def_cfa 7, 8
	ret
	.cfi_endproc
.LFE3071:
	.size	_ZNSt11_Deque_baseIiSaIiEED2Ev, .-_ZNSt11_Deque_baseIiSaIiEED2Ev
	.weak	_ZNSt11_Deque_baseIiSaIiEED1Ev
	.set	_ZNSt11_Deque_baseIiSaIiEED1Ev,_ZNSt11_Deque_baseIiSaIiEED2Ev
	.section	.text._ZNSt5dequeIiSaIiEE5beginEv,"axG",@progbits,_ZNSt5dequeIiSaIiEE5beginEv,comdat
	.align 2
	.weak	_ZNSt5dequeIiSaIiEE5beginEv
	.type	_ZNSt5dequeIiSaIiEE5beginEv, @function
_ZNSt5dequeIiSaIiEE5beginEv:
.LFB3073:
	.cfi_startproc
	pushq	%rbp
	.cfi_def_cfa_offset 16
	.cfi_offset 6, -16
	movq	%rsp, %rbp
	.cfi_def_cfa_register 6
	subq	$16, %rsp
	movq	%rdi, -8(%rbp)
	movq	%rsi, -16(%rbp)
	movq	-16(%rbp), %rax
	leaq	16(%rax), %rdx
	movq	-8(%rbp), %rax
	movq	%rdx, %rsi
	movq	%rax, %rdi
	call	_ZNSt15_Deque_iteratorIiRiPiEC1ERKS2_
	movq	-8(%rbp), %rax
	leave
	.cfi_def_cfa 7, 8
	ret
	.cfi_endproc
.LFE3073:
	.size	_ZNSt5dequeIiSaIiEE5beginEv, .-_ZNSt5dequeIiSaIiEE5beginEv
	.section	.text._ZNSt5dequeIiSaIiEE3endEv,"axG",@progbits,_ZNSt5dequeIiSaIiEE3endEv,comdat
	.align 2
	.weak	_ZNSt5dequeIiSaIiEE3endEv
	.type	_ZNSt5dequeIiSaIiEE3endEv, @function
_ZNSt5dequeIiSaIiEE3endEv:
.LFB3074:
	.cfi_startproc
	pushq	%rbp
	.cfi_def_cfa_offset 16
	.cfi_offset 6, -16
	movq	%rsp, %rbp
	.cfi_def_cfa_register 6
	subq	$16, %rsp
	movq	%rdi, -8(%rbp)
	movq	%rsi, -16(%rbp)
	movq	-16(%rbp), %rax
	leaq	48(%rax), %rdx
	movq	-8(%rbp), %rax
	movq	%rdx, %rsi
	movq	%rax, %rdi
	call	_ZNSt15_Deque_iteratorIiRiPiEC1ERKS2_
	movq	-8(%rbp), %rax
	leave
	.cfi_def_cfa 7, 8
	ret
	.cfi_endproc
.LFE3074:
	.size	_ZNSt5dequeIiSaIiEE3endEv, .-_ZNSt5dequeIiSaIiEE3endEv
	.section	.text._ZNSt11_Deque_baseIiSaIiEE19_M_get_Tp_allocatorEv,"axG",@progbits,_ZNSt11_Deque_baseIiSaIiEE19_M_get_Tp_allocatorEv,comdat
	.align 2
	.weak	_ZNSt11_Deque_baseIiSaIiEE19_M_get_Tp_allocatorEv
	.type	_ZNSt11_Deque_baseIiSaIiEE19_M_get_Tp_allocatorEv, @function
_ZNSt11_Deque_baseIiSaIiEE19_M_get_Tp_allocatorEv:
.LFB3075:
	.cfi_startproc
	pushq	%rbp
	.cfi_def_cfa_offset 16
	.cfi_offset 6, -16
	movq	%rsp, %rbp
	.cfi_def_cfa_register 6
	movq	%rdi, -8(%rbp)
	movq	-8(%rbp), %rax
	popq	%rbp
	.cfi_def_cfa 7, 8
	ret
	.cfi_endproc
.LFE3075:
	.size	_ZNSt11_Deque_baseIiSaIiEE19_M_get_Tp_allocatorEv, .-_ZNSt11_Deque_baseIiSaIiEE19_M_get_Tp_allocatorEv
	.section	.text._ZNSt5dequeIiSaIiEE15_M_destroy_dataESt15_Deque_iteratorIiRiPiES5_RKS0_,"axG",@progbits,_ZNSt5dequeIiSaIiEE15_M_destroy_dataESt15_Deque_iteratorIiRiPiES5_RKS0_,comdat
	.align 2
	.weak	_ZNSt5dequeIiSaIiEE15_M_destroy_dataESt15_Deque_iteratorIiRiPiES5_RKS0_
	.type	_ZNSt5dequeIiSaIiEE15_M_destroy_dataESt15_Deque_iteratorIiRiPiES5_RKS0_, @function
_ZNSt5dequeIiSaIiEE15_M_destroy_dataESt15_Deque_iteratorIiRiPiES5_RKS0_:
.LFB3076:
	.cfi_startproc
	pushq	%rbp
	.cfi_def_cfa_offset 16
	.cfi_offset 6, -16
	movq	%rsp, %rbp
	.cfi_def_cfa_register 6
	subq	$80, %rsp
	movq	%rdi, -56(%rbp)
	movq	%rsi, -64(%rbp)
	movq	%rdx, -72(%rbp)
	movq	%rcx, -80(%rbp)
	movq	%fs:40, %rax
	movq	%rax, -8(%rbp)
	xorl	%eax, %eax
	nop
	movq	-8(%rbp), %rax
	subq	%fs:40, %rax
	je	.L158
	call	__stack_chk_fail@PLT
.L158:
	leave
	.cfi_def_cfa 7, 8
	ret
	.cfi_endproc
.LFE3076:
	.size	_ZNSt5dequeIiSaIiEE15_M_destroy_dataESt15_Deque_iteratorIiRiPiES5_RKS0_, .-_ZNSt5dequeIiSaIiEE15_M_destroy_dataESt15_Deque_iteratorIiRiPiES5_RKS0_
	.section	.text._ZSt4moveIRiEONSt16remove_referenceIT_E4typeEOS2_,"axG",@progbits,_ZSt4moveIRiEONSt16remove_referenceIT_E4typeEOS2_,comdat
	.weak	_ZSt4moveIRiEONSt16remove_referenceIT_E4typeEOS2_
	.type	_ZSt4moveIRiEONSt16remove_referenceIT_E4typeEOS2_, @function
_ZSt4moveIRiEONSt16remove_referenceIT_E4typeEOS2_:
.LFB3077:
	.cfi_startproc
	pushq	%rbp
	.cfi_def_cfa_offset 16
	.cfi_offset 6, -16
	movq	%rsp, %rbp
	.cfi_def_cfa_register 6
	movq	%rdi, -8(%rbp)
	movq	-8(%rbp), %rax
	popq	%rbp
	.cfi_def_cfa 7, 8
	ret
	.cfi_endproc
.LFE3077:
	.size	_ZSt4moveIRiEONSt16remove_referenceIT_E4typeEOS2_, .-_ZSt4moveIRiEONSt16remove_referenceIT_E4typeEOS2_
	.section	.text._ZNSt5dequeIiSaIiEE9push_backEOi,"axG",@progbits,_ZNSt5dequeIiSaIiEE9push_backEOi,comdat
	.align 2
	.weak	_ZNSt5dequeIiSaIiEE9push_backEOi
	.type	_ZNSt5dequeIiSaIiEE9push_backEOi, @function
_ZNSt5dequeIiSaIiEE9push_backEOi:
.LFB3078:
	.cfi_startproc
	pushq	%rbp
	.cfi_def_cfa_offset 16
	.cfi_offset 6, -16
	movq	%rsp, %rbp
	.cfi_def_cfa_register 6
	subq	$16, %rsp
	movq	%rdi, -8(%rbp)
	movq	%rsi, -16(%rbp)
	movq	-16(%rbp), %rax
	movq	%rax, %rdi
	call	_ZSt4moveIRiEONSt16remove_referenceIT_E4typeEOS2_
	movq	%rax, %rdx
	movq	-8(%rbp), %rax
	movq	%rdx, %rsi
	movq	%rax, %rdi
	call	_ZNSt5dequeIiSaIiEE12emplace_backIJiEEERiDpOT_
	nop
	leave
	.cfi_def_cfa 7, 8
	ret
	.cfi_endproc
.LFE3078:
	.size	_ZNSt5dequeIiSaIiEE9push_backEOi, .-_ZNSt5dequeIiSaIiEE9push_backEOi
	.section	.text._ZNKSt5dequeIiSaIiEE5emptyEv,"axG",@progbits,_ZNKSt5dequeIiSaIiEE5emptyEv,comdat
	.align 2
	.weak	_ZNKSt5dequeIiSaIiEE5emptyEv
	.type	_ZNKSt5dequeIiSaIiEE5emptyEv, @function
_ZNKSt5dequeIiSaIiEE5emptyEv:
.LFB3079:
	.cfi_startproc
	pushq	%rbp
	.cfi_def_cfa_offset 16
	.cfi_offset 6, -16
	movq	%rsp, %rbp
	.cfi_def_cfa_register 6
	subq	$16, %rsp
	movq	%rdi, -8(%rbp)
	movq	-8(%rbp), %rax
	leaq	16(%rax), %rdx
	movq	-8(%rbp), %rax
	addq	$48, %rax
	movq	%rdx, %rsi
	movq	%rax, %rdi
	call	_ZSteqRKSt15_Deque_iteratorIiRiPiES4_
	leave
	.cfi_def_cfa 7, 8
	ret
	.cfi_endproc
.LFE3079:
	.size	_ZNKSt5dequeIiSaIiEE5emptyEv, .-_ZNKSt5dequeIiSaIiEE5emptyEv
	.section	.text._ZNSt5dequeIiSaIiEE5frontEv,"axG",@progbits,_ZNSt5dequeIiSaIiEE5frontEv,comdat
	.align 2
	.weak	_ZNSt5dequeIiSaIiEE5frontEv
	.type	_ZNSt5dequeIiSaIiEE5frontEv, @function
_ZNSt5dequeIiSaIiEE5frontEv:
.LFB3080:
	.cfi_startproc
	pushq	%rbp
	.cfi_def_cfa_offset 16
	.cfi_offset 6, -16
	movq	%rsp, %rbp
	.cfi_def_cfa_register 6
	subq	$64, %rsp
	movq	%rdi, -56(%rbp)
	movq	%fs:40, %rax
	movq	%rax, -8(%rbp)
	xorl	%eax, %eax
	leaq	-48(%rbp), %rax
	movq	-56(%rbp), %rdx
	movq	%rdx, %rsi
	movq	%rax, %rdi
	call	_ZNSt5dequeIiSaIiEE5beginEv
	leaq	-48(%rbp), %rax
	movq	%rax, %rdi
	call	_ZNKSt15_Deque_iteratorIiRiPiEdeEv
	movq	-8(%rbp), %rdx
	subq	%fs:40, %rdx
	je	.L166
	call	__stack_chk_fail@PLT
.L166:
	leave
	.cfi_def_cfa 7, 8
	ret
	.cfi_endproc
.LFE3080:
	.size	_ZNSt5dequeIiSaIiEE5frontEv, .-_ZNSt5dequeIiSaIiEE5frontEv
	.section	.text._ZNSt5dequeIiSaIiEE9pop_frontEv,"axG",@progbits,_ZNSt5dequeIiSaIiEE9pop_frontEv,comdat
	.align 2
	.weak	_ZNSt5dequeIiSaIiEE9pop_frontEv
	.type	_ZNSt5dequeIiSaIiEE9pop_frontEv, @function
_ZNSt5dequeIiSaIiEE9pop_frontEv:
.LFB3081:
	.cfi_startproc
	pushq	%rbp
	.cfi_def_cfa_offset 16
	.cfi_offset 6, -16
	movq	%rsp, %rbp
	.cfi_def_cfa_register 6
	pushq	%rbx
	subq	$56, %rsp
	.cfi_offset 3, -24
	movq	%rdi, -56(%rbp)
	movq	-56(%rbp), %rax
	movq	16(%rax), %rdx
	movq	-56(%rbp), %rax
	movq	32(%rax), %rax
	subq	$4, %rax
	cmpq	%rax, %rdx
	je	.L168
	movq	-56(%rbp), %rax
	movq	16(%rax), %rbx
	movq	-56(%rbp), %rax
	movq	%rax, %rdi
	call	_ZNSt11_Deque_baseIiSaIiEE19_M_get_Tp_allocatorEv
	movq	%rax, -48(%rbp)
	movq	%rbx, -40(%rbp)
	movq	-48(%rbp), %rax
	movq	%rax, -32(%rbp)
	movq	-40(%rbp), %rax
	movq	%rax, -24(%rbp)
	nop
	nop
	movq	-56(%rbp), %rax
	movq	16(%rax), %rax
	leaq	4(%rax), %rdx
	movq	-56(%rbp), %rax
	movq	%rdx, 16(%rax)
	jmp	.L170
.L168:
	movq	-56(%rbp), %rax
	movq	%rax, %rdi
	call	_ZNSt5dequeIiSaIiEE16_M_pop_front_auxEv
.L170:
	nop
	movq	-8(%rbp), %rbx
	leave
	.cfi_def_cfa 7, 8
	ret
	.cfi_endproc
.LFE3081:
	.size	_ZNSt5dequeIiSaIiEE9pop_frontEv, .-_ZNSt5dequeIiSaIiEE9pop_frontEv
	.section	.text._ZNSt5dequeIiSaIiEE9push_backERKi,"axG",@progbits,_ZNSt5dequeIiSaIiEE9push_backERKi,comdat
	.align 2
	.weak	_ZNSt5dequeIiSaIiEE9push_backERKi
	.type	_ZNSt5dequeIiSaIiEE9push_backERKi, @function
_ZNSt5dequeIiSaIiEE9push_backERKi:
.LFB3083:
	.cfi_startproc
	pushq	%rbp
	.cfi_def_cfa_offset 16
	.cfi_offset 6, -16
	movq	%rsp, %rbp
	.cfi_def_cfa_register 6
	pushq	%rbx
	subq	$72, %rsp
	.cfi_offset 3, -24
	movq	%rdi, -72(%rbp)
	movq	%rsi, -80(%rbp)
	movq	-72(%rbp), %rax
	movq	48(%rax), %rdx
	movq	-72(%rbp), %rax
	movq	64(%rax), %rax
	subq	$4, %rax
	cmpq	%rax, %rdx
	je	.L172
	movq	-72(%rbp), %rax
	movq	48(%rax), %rax
	movq	-72(%rbp), %rdx
	movq	%rdx, -64(%rbp)
	movq	%rax, -56(%rbp)
	movq	-80(%rbp), %rax
	movq	%rax, -48(%rbp)
	movq	-48(%rbp), %rax
	movq	%rax, %rdi
	call	_ZSt7forwardIRKiEOT_RNSt16remove_referenceIS2_E4typeE
	movq	-64(%rbp), %rdx
	movq	%rdx, -40(%rbp)
	movq	-56(%rbp), %rdx
	movq	%rdx, -32(%rbp)
	movq	%rax, -24(%rbp)
	movq	-32(%rbp), %rax
	movq	%rax, %rsi
	movl	$4, %edi
	call	_ZnwmPv
	movq	%rax, %rbx
	movq	-24(%rbp), %rax
	movq	%rax, %rdi
	call	_ZSt7forwardIRKiEOT_RNSt16remove_referenceIS2_E4typeE
	movl	(%rax), %eax
	movl	%eax, (%rbx)
	nop
	nop
	movq	-72(%rbp), %rax
	movq	48(%rax), %rax
	leaq	4(%rax), %rdx
	movq	-72(%rbp), %rax
	movq	%rdx, 48(%rax)
	jmp	.L174
.L172:
	movq	-80(%rbp), %rdx
	movq	-72(%rbp), %rax
	movq	%rdx, %rsi
	movq	%rax, %rdi
	call	_ZNSt5dequeIiSaIiEE16_M_push_back_auxIJRKiEEEvDpOT_
.L174:
	nop
	movq	-8(%rbp), %rbx
	leave
	.cfi_def_cfa 7, 8
	ret
	.cfi_endproc
.LFE3083:
	.size	_ZNSt5dequeIiSaIiEE9push_backERKi, .-_ZNSt5dequeIiSaIiEE9push_backERKi
	.section	.text._ZNSt15__new_allocatorIiED2Ev,"axG",@progbits,_ZNSt15__new_allocatorIiED5Ev,comdat
	.align 2
	.weak	_ZNSt15__new_allocatorIiED2Ev
	.type	_ZNSt15__new_allocatorIiED2Ev, @function
_ZNSt15__new_allocatorIiED2Ev:
.LFB3088:
	.cfi_startproc
	pushq	%rbp
	.cfi_def_cfa_offset 16
	.cfi_offset 6, -16
	movq	%rsp, %rbp
	.cfi_def_cfa_register 6
	movq	%rdi, -8(%rbp)
	nop
	popq	%rbp
	.cfi_def_cfa 7, 8
	ret
	.cfi_endproc
.LFE3088:
	.size	_ZNSt15__new_allocatorIiED2Ev, .-_ZNSt15__new_allocatorIiED2Ev
	.weak	_ZNSt15__new_allocatorIiED1Ev
	.set	_ZNSt15__new_allocatorIiED1Ev,_ZNSt15__new_allocatorIiED2Ev
	.section	.rodata
	.align 8
.LC2:
	.string	"cannot create std::vector larger than max_size()"
	.section	.text._ZNSt6vectorIiSaIiEE17_S_check_init_lenEmRKS0_,"axG",@progbits,_ZNSt6vectorIiSaIiEE17_S_check_init_lenEmRKS0_,comdat
	.weak	_ZNSt6vectorIiSaIiEE17_S_check_init_lenEmRKS0_
	.type	_ZNSt6vectorIiSaIiEE17_S_check_init_lenEmRKS0_, @function
_ZNSt6vectorIiSaIiEE17_S_check_init_lenEmRKS0_:
.LFB3090:
	.cfi_startproc
	pushq	%rbp
	.cfi_def_cfa_offset 16
	.cfi_offset 6, -16
	movq	%rsp, %rbp
	.cfi_def_cfa_register 6
	pushq	%rbx
	subq	$72, %rsp
	.cfi_offset 3, -24
	movq	%rdi, -72(%rbp)
	movq	%rsi, -80(%rbp)
	movq	%fs:40, %rax
	movq	%rax, -24(%rbp)
	xorl	%eax, %eax
	movq	-80(%rbp), %rax
	movq	%rax, -48(%rbp)
	leaq	-49(%rbp), %rax
	movq	%rax, -40(%rbp)
	movq	-48(%rbp), %rax
	movq	%rax, -32(%rbp)
	nop
	nop
	leaq	-49(%rbp), %rax
	movq	%rax, %rdi
	call	_ZNSt6vectorIiSaIiEE11_S_max_sizeERKS0_
	cmpq	-72(%rbp), %rax
	setb	%bl
	leaq	-49(%rbp), %rax
	movq	%rax, %rdi
	call	_ZNSt15__new_allocatorIiED2Ev
	nop
	testb	%bl, %bl
	je	.L177
	movq	-24(%rbp), %rax
	subq	%fs:40, %rax
	je	.L178
	call	__stack_chk_fail@PLT
.L178:
	leaq	.LC2(%rip), %rax
	movq	%rax, %rdi
	call	_ZSt20__throw_length_errorPKc@PLT
.L177:
	movq	-72(%rbp), %rax
	movq	-24(%rbp), %rdx
	subq	%fs:40, %rdx
	je	.L180
	call	__stack_chk_fail@PLT
.L180:
	movq	-8(%rbp), %rbx
	leave
	.cfi_def_cfa 7, 8
	ret
	.cfi_endproc
.LFE3090:
	.size	_ZNSt6vectorIiSaIiEE17_S_check_init_lenEmRKS0_, .-_ZNSt6vectorIiSaIiEE17_S_check_init_lenEmRKS0_
	.section	.text._ZNSt12_Vector_baseIiSaIiEE12_Vector_implD2Ev,"axG",@progbits,_ZNSt12_Vector_baseIiSaIiEE12_Vector_implD5Ev,comdat
	.align 2
	.weak	_ZNSt12_Vector_baseIiSaIiEE12_Vector_implD2Ev
	.type	_ZNSt12_Vector_baseIiSaIiEE12_Vector_implD2Ev, @function
_ZNSt12_Vector_baseIiSaIiEE12_Vector_implD2Ev:
.LFB3093:
	.cfi_startproc
	pushq	%rbp
	.cfi_def_cfa_offset 16
	.cfi_offset 6, -16
	movq	%rsp, %rbp
	.cfi_def_cfa_register 6
	subq	$32, %rsp
	movq	%rdi, -24(%rbp)
	movq	-24(%rbp), %rax
	movq	%rax, -8(%rbp)
	movq	-8(%rbp), %rax
	movq	%rax, %rdi
	call	_ZNSt15__new_allocatorIiED2Ev
	nop
	nop
	leave
	.cfi_def_cfa 7, 8
	ret
	.cfi_endproc
.LFE3093:
	.size	_ZNSt12_Vector_baseIiSaIiEE12_Vector_implD2Ev, .-_ZNSt12_Vector_baseIiSaIiEE12_Vector_implD2Ev
	.weak	_ZNSt12_Vector_baseIiSaIiEE12_Vector_implD1Ev
	.set	_ZNSt12_Vector_baseIiSaIiEE12_Vector_implD1Ev,_ZNSt12_Vector_baseIiSaIiEE12_Vector_implD2Ev
	.section	.text._ZNSt12_Vector_baseIiSaIiEEC2EmRKS0_,"axG",@progbits,_ZNSt12_Vector_baseIiSaIiEEC5EmRKS0_,comdat
	.align 2
	.weak	_ZNSt12_Vector_baseIiSaIiEEC2EmRKS0_
	.type	_ZNSt12_Vector_baseIiSaIiEEC2EmRKS0_, @function
_ZNSt12_Vector_baseIiSaIiEEC2EmRKS0_:
.LFB3095:
	.cfi_startproc
	.cfi_personality 0x9b,DW.ref.__gxx_personality_v0
	.cfi_lsda 0x1b,.LLSDA3095
	pushq	%rbp
	.cfi_def_cfa_offset 16
	.cfi_offset 6, -16
	movq	%rsp, %rbp
	.cfi_def_cfa_register 6
	pushq	%rbx
	subq	$40, %rsp
	.cfi_offset 3, -24
	movq	%rdi, -24(%rbp)
	movq	%rsi, -32(%rbp)
	movq	%rdx, -40(%rbp)
	movq	-24(%rbp), %rax
	movq	-40(%rbp), %rdx
	movq	%rdx, %rsi
	movq	%rax, %rdi
	call	_ZNSt12_Vector_baseIiSaIiEE12_Vector_implC1ERKS0_
	movq	-32(%rbp), %rdx
	movq	-24(%rbp), %rax
	movq	%rdx, %rsi
	movq	%rax, %rdi
.LEHB19:
	call	_ZNSt12_Vector_baseIiSaIiEE17_M_create_storageEm
.LEHE19:
	jmp	.L185
.L184:
	movq	%rax, %rbx
	movq	-24(%rbp), %rax
	movq	%rax, %rdi
	call	_ZNSt12_Vector_baseIiSaIiEE12_Vector_implD1Ev
	movq	%rbx, %rax
	movq	%rax, %rdi
.LEHB20:
	call	_Unwind_Resume@PLT
.LEHE20:
.L185:
	movq	-8(%rbp), %rbx
	leave
	.cfi_def_cfa 7, 8
	ret
	.cfi_endproc
.LFE3095:
	.section	.gcc_except_table
.LLSDA3095:
	.byte	0xff
	.byte	0xff
	.byte	0x1
	.uleb128 .LLSDACSE3095-.LLSDACSB3095
.LLSDACSB3095:
	.uleb128 .LEHB19-.LFB3095
	.uleb128 .LEHE19-.LEHB19
	.uleb128 .L184-.LFB3095
	.uleb128 0
	.uleb128 .LEHB20-.LFB3095
	.uleb128 .LEHE20-.LEHB20
	.uleb128 0
	.uleb128 0
.LLSDACSE3095:
	.section	.text._ZNSt12_Vector_baseIiSaIiEEC2EmRKS0_,"axG",@progbits,_ZNSt12_Vector_baseIiSaIiEEC5EmRKS0_,comdat
	.size	_ZNSt12_Vector_baseIiSaIiEEC2EmRKS0_, .-_ZNSt12_Vector_baseIiSaIiEEC2EmRKS0_
	.weak	_ZNSt12_Vector_baseIiSaIiEEC1EmRKS0_
	.set	_ZNSt12_Vector_baseIiSaIiEEC1EmRKS0_,_ZNSt12_Vector_baseIiSaIiEEC2EmRKS0_
	.section	.text._ZNSt12_Vector_baseIiSaIiEED2Ev,"axG",@progbits,_ZNSt12_Vector_baseIiSaIiEED5Ev,comdat
	.align 2
	.weak	_ZNSt12_Vector_baseIiSaIiEED2Ev
	.type	_ZNSt12_Vector_baseIiSaIiEED2Ev, @function
_ZNSt12_Vector_baseIiSaIiEED2Ev:
.LFB3098:
	.cfi_startproc
	.cfi_personality 0x9b,DW.ref.__gxx_personality_v0
	.cfi_lsda 0x1b,.LLSDA3098
	pushq	%rbp
	.cfi_def_cfa_offset 16
	.cfi_offset 6, -16
	movq	%rsp, %rbp
	.cfi_def_cfa_register 6
	subq	$16, %rsp
	movq	%rdi, -8(%rbp)
	movq	-8(%rbp), %rax
	movq	16(%rax), %rdx
	movq	-8(%rbp), %rax
	movq	(%rax), %rax
	subq	%rax, %rdx
	movq	%rdx, %rax
	sarq	$2, %rax
	movq	%rax, %rdx
	movq	-8(%rbp), %rax
	movq	(%rax), %rcx
	movq	-8(%rbp), %rax
	movq	%rcx, %rsi
	movq	%rax, %rdi
	call	_ZNSt12_Vector_baseIiSaIiEE13_M_deallocateEPim
	movq	-8(%rbp), %rax
	movq	%rax, %rdi
	call	_ZNSt12_Vector_baseIiSaIiEE12_Vector_implD1Ev
	nop
	leave
	.cfi_def_cfa 7, 8
	ret
	.cfi_endproc
.LFE3098:
	.section	.gcc_except_table
.LLSDA3098:
	.byte	0xff
	.byte	0xff
	.byte	0x1
	.uleb128 .LLSDACSE3098-.LLSDACSB3098
.LLSDACSB3098:
.LLSDACSE3098:
	.section	.text._ZNSt12_Vector_baseIiSaIiEED2Ev,"axG",@progbits,_ZNSt12_Vector_baseIiSaIiEED5Ev,comdat
	.size	_ZNSt12_Vector_baseIiSaIiEED2Ev, .-_ZNSt12_Vector_baseIiSaIiEED2Ev
	.weak	_ZNSt12_Vector_baseIiSaIiEED1Ev
	.set	_ZNSt12_Vector_baseIiSaIiEED1Ev,_ZNSt12_Vector_baseIiSaIiEED2Ev
	.section	.text._ZNSt6vectorIiSaIiEE21_M_default_initializeEm,"axG",@progbits,_ZNSt6vectorIiSaIiEE21_M_default_initializeEm,comdat
	.align 2
	.weak	_ZNSt6vectorIiSaIiEE21_M_default_initializeEm
	.type	_ZNSt6vectorIiSaIiEE21_M_default_initializeEm, @function
_ZNSt6vectorIiSaIiEE21_M_default_initializeEm:
.LFB3100:
	.cfi_startproc
	pushq	%rbp
	.cfi_def_cfa_offset 16
	.cfi_offset 6, -16
	movq	%rsp, %rbp
	.cfi_def_cfa_register 6
	subq	$16, %rsp
	movq	%rdi, -8(%rbp)
	movq	%rsi, -16(%rbp)
	movq	-8(%rbp), %rax
	movq	%rax, %rdi
	call	_ZNSt12_Vector_baseIiSaIiEE19_M_get_Tp_allocatorEv
	movq	%rax, %rdx
	movq	-8(%rbp), %rax
	movq	(%rax), %rax
	movq	-16(%rbp), %rcx
	movq	%rcx, %rsi
	movq	%rax, %rdi
	call	_ZSt27__uninitialized_default_n_aIPimiET_S1_T0_RSaIT1_E
	movq	-8(%rbp), %rdx
	movq	%rax, 8(%rdx)
	nop
	leave
	.cfi_def_cfa 7, 8
	ret
	.cfi_endproc
.LFE3100:
	.size	_ZNSt6vectorIiSaIiEE21_M_default_initializeEm, .-_ZNSt6vectorIiSaIiEE21_M_default_initializeEm
	.section	.text._ZNSt12_Vector_baseIiSaIiEE19_M_get_Tp_allocatorEv,"axG",@progbits,_ZNSt12_Vector_baseIiSaIiEE19_M_get_Tp_allocatorEv,comdat
	.align 2
	.weak	_ZNSt12_Vector_baseIiSaIiEE19_M_get_Tp_allocatorEv
	.type	_ZNSt12_Vector_baseIiSaIiEE19_M_get_Tp_allocatorEv, @function
_ZNSt12_Vector_baseIiSaIiEE19_M_get_Tp_allocatorEv:
.LFB3101:
	.cfi_startproc
	pushq	%rbp
	.cfi_def_cfa_offset 16
	.cfi_offset 6, -16
	movq	%rsp, %rbp
	.cfi_def_cfa_register 6
	movq	%rdi, -8(%rbp)
	movq	-8(%rbp), %rax
	popq	%rbp
	.cfi_def_cfa 7, 8
	ret
	.cfi_endproc
.LFE3101:
	.size	_ZNSt12_Vector_baseIiSaIiEE19_M_get_Tp_allocatorEv, .-_ZNSt12_Vector_baseIiSaIiEE19_M_get_Tp_allocatorEv
	.section	.text._ZNKSt12_Vector_baseIiSaIiEE19_M_get_Tp_allocatorEv,"axG",@progbits,_ZNKSt12_Vector_baseIiSaIiEE19_M_get_Tp_allocatorEv,comdat
	.align 2
	.weak	_ZNKSt12_Vector_baseIiSaIiEE19_M_get_Tp_allocatorEv
	.type	_ZNKSt12_Vector_baseIiSaIiEE19_M_get_Tp_allocatorEv, @function
_ZNKSt12_Vector_baseIiSaIiEE19_M_get_Tp_allocatorEv:
.LFB3103:
	.cfi_startproc
	pushq	%rbp
	.cfi_def_cfa_offset 16
	.cfi_offset 6, -16
	movq	%rsp, %rbp
	.cfi_def_cfa_register 6
	movq	%rdi, -8(%rbp)
	movq	-8(%rbp), %rax
	popq	%rbp
	.cfi_def_cfa 7, 8
	ret
	.cfi_endproc
.LFE3103:
	.size	_ZNKSt12_Vector_baseIiSaIiEE19_M_get_Tp_allocatorEv, .-_ZNKSt12_Vector_baseIiSaIiEE19_M_get_Tp_allocatorEv
	.section	.text._ZNKSt6vectorIiSaIiEE5beginEv,"axG",@progbits,_ZNKSt6vectorIiSaIiEE5beginEv,comdat
	.align 2
	.weak	_ZNKSt6vectorIiSaIiEE5beginEv
	.type	_ZNKSt6vectorIiSaIiEE5beginEv, @function
_ZNKSt6vectorIiSaIiEE5beginEv:
.LFB3105:
	.cfi_startproc
	pushq	%rbp
	.cfi_def_cfa_offset 16
	.cfi_offset 6, -16
	movq	%rsp, %rbp
	.cfi_def_cfa_register 6
	subq	$32, %rsp
	movq	%rdi, -24(%rbp)
	movq	%fs:40, %rax
	movq	%rax, -8(%rbp)
	xorl	%eax, %eax
	movq	-24(%rbp), %rdx
	leaq	-16(%rbp), %rax
	movq	%rdx, %rsi
	movq	%rax, %rdi
	call	_ZN9__gnu_cxx17__normal_iteratorIPKiSt6vectorIiSaIiEEEC1ERKS2_
	movq	-16(%rbp), %rax
	movq	-8(%rbp), %rdx
	subq	%fs:40, %rdx
	je	.L194
	call	__stack_chk_fail@PLT
.L194:
	leave
	.cfi_def_cfa 7, 8
	ret
	.cfi_endproc
.LFE3105:
	.size	_ZNKSt6vectorIiSaIiEE5beginEv, .-_ZNKSt6vectorIiSaIiEE5beginEv
	.section	.text._ZNKSt6vectorIiSaIiEE3endEv,"axG",@progbits,_ZNKSt6vectorIiSaIiEE3endEv,comdat
	.align 2
	.weak	_ZNKSt6vectorIiSaIiEE3endEv
	.type	_ZNKSt6vectorIiSaIiEE3endEv, @function
_ZNKSt6vectorIiSaIiEE3endEv:
.LFB3106:
	.cfi_startproc
	pushq	%rbp
	.cfi_def_cfa_offset 16
	.cfi_offset 6, -16
	movq	%rsp, %rbp
	.cfi_def_cfa_register 6
	subq	$32, %rsp
	movq	%rdi, -24(%rbp)
	movq	%fs:40, %rax
	movq	%rax, -8(%rbp)
	xorl	%eax, %eax
	movq	-24(%rbp), %rax
	leaq	8(%rax), %rdx
	leaq	-16(%rbp), %rax
	movq	%rdx, %rsi
	movq	%rax, %rdi
	call	_ZN9__gnu_cxx17__normal_iteratorIPKiSt6vectorIiSaIiEEEC1ERKS2_
	movq	-16(%rbp), %rax
	movq	-8(%rbp), %rdx
	subq	%fs:40, %rdx
	je	.L197
	call	__stack_chk_fail@PLT
.L197:
	leave
	.cfi_def_cfa 7, 8
	ret
	.cfi_endproc
.LFE3106:
	.size	_ZNKSt6vectorIiSaIiEE3endEv, .-_ZNKSt6vectorIiSaIiEE3endEv
	.section	.text._ZSt22__uninitialized_copy_aIN9__gnu_cxx17__normal_iteratorIPKiSt6vectorIiSaIiEEEEPiiET0_T_SA_S9_RSaIT1_E,"axG",@progbits,_ZSt22__uninitialized_copy_aIN9__gnu_cxx17__normal_iteratorIPKiSt6vectorIiSaIiEEEEPiiET0_T_SA_S9_RSaIT1_E,comdat
	.weak	_ZSt22__uninitialized_copy_aIN9__gnu_cxx17__normal_iteratorIPKiSt6vectorIiSaIiEEEEPiiET0_T_SA_S9_RSaIT1_E
	.type	_ZSt22__uninitialized_copy_aIN9__gnu_cxx17__normal_iteratorIPKiSt6vectorIiSaIiEEEEPiiET0_T_SA_S9_RSaIT1_E, @function
_ZSt22__uninitialized_copy_aIN9__gnu_cxx17__normal_iteratorIPKiSt6vectorIiSaIiEEEEPiiET0_T_SA_S9_RSaIT1_E:
.LFB3107:
	.cfi_startproc
	pushq	%rbp
	.cfi_def_cfa_offset 16
	.cfi_offset 6, -16
	movq	%rsp, %rbp
	.cfi_def_cfa_register 6
	subq	$32, %rsp
	movq	%rdi, -8(%rbp)
	movq	%rsi, -16(%rbp)
	movq	%rdx, -24(%rbp)
	movq	%rcx, -32(%rbp)
	movq	-24(%rbp), %rdx
	movq	-16(%rbp), %rcx
	movq	-8(%rbp), %rax
	movq	%rcx, %rsi
	movq	%rax, %rdi
	call	_ZSt18uninitialized_copyIN9__gnu_cxx17__normal_iteratorIPKiSt6vectorIiSaIiEEEEPiET0_T_SA_S9_
	leave
	.cfi_def_cfa 7, 8
	ret
	.cfi_endproc
.LFE3107:
	.size	_ZSt22__uninitialized_copy_aIN9__gnu_cxx17__normal_iteratorIPKiSt6vectorIiSaIiEEEEPiiET0_T_SA_S9_RSaIT1_E, .-_ZSt22__uninitialized_copy_aIN9__gnu_cxx17__normal_iteratorIPKiSt6vectorIiSaIiEEEEPiiET0_T_SA_S9_RSaIT1_E
	.section	.text._ZSt7forwardIRKN7segtree4nodeEEOT_RNSt16remove_referenceIS4_E4typeE,"axG",@progbits,_ZSt7forwardIRKN7segtree4nodeEEOT_RNSt16remove_referenceIS4_E4typeE,comdat
	.weak	_ZSt7forwardIRKN7segtree4nodeEEOT_RNSt16remove_referenceIS4_E4typeE
	.type	_ZSt7forwardIRKN7segtree4nodeEEOT_RNSt16remove_referenceIS4_E4typeE, @function
_ZSt7forwardIRKN7segtree4nodeEEOT_RNSt16remove_referenceIS4_E4typeE:
.LFB3180:
	.cfi_startproc
	pushq	%rbp
	.cfi_def_cfa_offset 16
	.cfi_offset 6, -16
	movq	%rsp, %rbp
	.cfi_def_cfa_register 6
	movq	%rdi, -8(%rbp)
	movq	-8(%rbp), %rax
	popq	%rbp
	.cfi_def_cfa 7, 8
	ret
	.cfi_endproc
.LFE3180:
	.size	_ZSt7forwardIRKN7segtree4nodeEEOT_RNSt16remove_referenceIS4_E4typeE, .-_ZSt7forwardIRKN7segtree4nodeEEOT_RNSt16remove_referenceIS4_E4typeE
	.section	.text._ZN9__gnu_cxx17__normal_iteratorIPN7segtree4nodeESt6vectorIS2_SaIS2_EEEC2ERKS3_,"axG",@progbits,_ZN9__gnu_cxx17__normal_iteratorIPN7segtree4nodeESt6vectorIS2_SaIS2_EEEC5ERKS3_,comdat
	.align 2
	.weak	_ZN9__gnu_cxx17__normal_iteratorIPN7segtree4nodeESt6vectorIS2_SaIS2_EEEC2ERKS3_
	.type	_ZN9__gnu_cxx17__normal_iteratorIPN7segtree4nodeESt6vectorIS2_SaIS2_EEEC2ERKS3_, @function
_ZN9__gnu_cxx17__normal_iteratorIPN7segtree4nodeESt6vectorIS2_SaIS2_EEEC2ERKS3_:
.LFB3183:
	.cfi_startproc
	pushq	%rbp
	.cfi_def_cfa_offset 16
	.cfi_offset 6, -16
	movq	%rsp, %rbp
	.cfi_def_cfa_register 6
	movq	%rdi, -8(%rbp)
	movq	%rsi, -16(%rbp)
	movq	-16(%rbp), %rax
	movq	(%rax), %rdx
	movq	-8(%rbp), %rax
	movq	%rdx, (%rax)
	nop
	popq	%rbp
	.cfi_def_cfa 7, 8
	ret
	.cfi_endproc
.LFE3183:
	.size	_ZN9__gnu_cxx17__normal_iteratorIPN7segtree4nodeESt6vectorIS2_SaIS2_EEEC2ERKS3_, .-_ZN9__gnu_cxx17__normal_iteratorIPN7segtree4nodeESt6vectorIS2_SaIS2_EEEC2ERKS3_
	.weak	_ZN9__gnu_cxx17__normal_iteratorIPN7segtree4nodeESt6vectorIS2_SaIS2_EEEC1ERKS3_
	.set	_ZN9__gnu_cxx17__normal_iteratorIPN7segtree4nodeESt6vectorIS2_SaIS2_EEEC1ERKS3_,_ZN9__gnu_cxx17__normal_iteratorIPN7segtree4nodeESt6vectorIS2_SaIS2_EEEC2ERKS3_
	.section	.text._ZNKSt6vectorIN7segtree4nodeESaIS1_EE12_M_check_lenEmPKc,"axG",@progbits,_ZNKSt6vectorIN7segtree4nodeESaIS1_EE12_M_check_lenEmPKc,comdat
	.align 2
	.weak	_ZNKSt6vectorIN7segtree4nodeESaIS1_EE12_M_check_lenEmPKc
	.type	_ZNKSt6vectorIN7segtree4nodeESaIS1_EE12_M_check_lenEmPKc, @function
_ZNKSt6vectorIN7segtree4nodeESaIS1_EE12_M_check_lenEmPKc:
.LFB3185:
	.cfi_startproc
	pushq	%rbp
	.cfi_def_cfa_offset 16
	.cfi_offset 6, -16
	movq	%rsp, %rbp
	.cfi_def_cfa_register 6
	pushq	%rbx
	subq	$72, %rsp
	.cfi_offset 3, -24
	movq	%rdi, -56(%rbp)
	movq	%rsi, -64(%rbp)
	movq	%rdx, -72(%rbp)
	movq	%fs:40, %rax
	movq	%rax, -24(%rbp)
	xorl	%eax, %eax
	movq	-56(%rbp), %rax
	movq	%rax, %rdi
	call	_ZNKSt6vectorIN7segtree4nodeESaIS1_EE8max_sizeEv
	movq	%rax, %rbx
	movq	-56(%rbp), %rax
	movq	%rax, %rdi
	call	_ZNKSt6vectorIN7segtree4nodeESaIS1_EE4sizeEv
	subq	%rax, %rbx
	movq	%rbx, %rdx
	movq	-64(%rbp), %rax
	cmpq	%rax, %rdx
	setb	%al
	testb	%al, %al
	je	.L204
	movq	-24(%rbp), %rax
	subq	%fs:40, %rax
	je	.L205
	call	__stack_chk_fail@PLT
.L205:
	movq	-72(%rbp), %rax
	movq	%rax, %rdi
	call	_ZSt20__throw_length_errorPKc@PLT
.L204:
	movq	-56(%rbp), %rax
	movq	%rax, %rdi
	call	_ZNKSt6vectorIN7segtree4nodeESaIS1_EE4sizeEv
	movq	%rax, %rbx
	movq	-56(%rbp), %rax
	movq	%rax, %rdi
	call	_ZNKSt6vectorIN7segtree4nodeESaIS1_EE4sizeEv
	movq	%rax, -40(%rbp)
	leaq	-64(%rbp), %rdx
	leaq	-40(%rbp), %rax
	movq	%rdx, %rsi
	movq	%rax, %rdi
	call	_ZSt3maxImERKT_S2_S2_
	movq	(%rax), %rax
	addq	%rbx, %rax
	movq	%rax, -32(%rbp)
	movq	-56(%rbp), %rax
	movq	%rax, %rdi
	call	_ZNKSt6vectorIN7segtree4nodeESaIS1_EE4sizeEv
	cmpq	%rax, -32(%rbp)
	jb	.L206
	movq	-56(%rbp), %rax
	movq	%rax, %rdi
	call	_ZNKSt6vectorIN7segtree4nodeESaIS1_EE8max_sizeEv
	cmpq	-32(%rbp), %rax
	jnb	.L207
.L206:
	movq	-56(%rbp), %rax
	movq	%rax, %rdi
	call	_ZNKSt6vectorIN7segtree4nodeESaIS1_EE8max_sizeEv
	jmp	.L208
.L207:
	movq	-32(%rbp), %rax
.L208:
	movq	-24(%rbp), %rdx
	subq	%fs:40, %rdx
	je	.L210
	call	__stack_chk_fail@PLT
.L210:
	movq	-8(%rbp), %rbx
	leave
	.cfi_def_cfa 7, 8
	ret
	.cfi_endproc
.LFE3185:
	.size	_ZNKSt6vectorIN7segtree4nodeESaIS1_EE12_M_check_lenEmPKc, .-_ZNKSt6vectorIN7segtree4nodeESaIS1_EE12_M_check_lenEmPKc
	.section	.text._ZNSt6vectorIN7segtree4nodeESaIS1_EE5beginEv,"axG",@progbits,_ZNSt6vectorIN7segtree4nodeESaIS1_EE5beginEv,comdat
	.align 2
	.weak	_ZNSt6vectorIN7segtree4nodeESaIS1_EE5beginEv
	.type	_ZNSt6vectorIN7segtree4nodeESaIS1_EE5beginEv, @function
_ZNSt6vectorIN7segtree4nodeESaIS1_EE5beginEv:
.LFB3186:
	.cfi_startproc
	pushq	%rbp
	.cfi_def_cfa_offset 16
	.cfi_offset 6, -16
	movq	%rsp, %rbp
	.cfi_def_cfa_register 6
	subq	$32, %rsp
	movq	%rdi, -24(%rbp)
	movq	%fs:40, %rax
	movq	%rax, -8(%rbp)
	xorl	%eax, %eax
	movq	-24(%rbp), %rdx
	leaq	-16(%rbp), %rax
	movq	%rdx, %rsi
	movq	%rax, %rdi
	call	_ZN9__gnu_cxx17__normal_iteratorIPN7segtree4nodeESt6vectorIS2_SaIS2_EEEC1ERKS3_
	movq	-16(%rbp), %rax
	movq	-8(%rbp), %rdx
	subq	%fs:40, %rdx
	je	.L213
	call	__stack_chk_fail@PLT
.L213:
	leave
	.cfi_def_cfa 7, 8
	ret
	.cfi_endproc
.LFE3186:
	.size	_ZNSt6vectorIN7segtree4nodeESaIS1_EE5beginEv, .-_ZNSt6vectorIN7segtree4nodeESaIS1_EE5beginEv
	.section	.text._ZN9__gnu_cxxmiIPN7segtree4nodeESt6vectorIS2_SaIS2_EEEENS_17__normal_iteratorIT_T0_E15difference_typeERKSA_SD_,"axG",@progbits,_ZN9__gnu_cxxmiIPN7segtree4nodeESt6vectorIS2_SaIS2_EEEENS_17__normal_iteratorIT_T0_E15difference_typeERKSA_SD_,comdat
	.weak	_ZN9__gnu_cxxmiIPN7segtree4nodeESt6vectorIS2_SaIS2_EEEENS_17__normal_iteratorIT_T0_E15difference_typeERKSA_SD_
	.type	_ZN9__gnu_cxxmiIPN7segtree4nodeESt6vectorIS2_SaIS2_EEEENS_17__normal_iteratorIT_T0_E15difference_typeERKSA_SD_, @function
_ZN9__gnu_cxxmiIPN7segtree4nodeESt6vectorIS2_SaIS2_EEEENS_17__normal_iteratorIT_T0_E15difference_typeERKSA_SD_:
.LFB3187:
	.cfi_startproc
	pushq	%rbp
	.cfi_def_cfa_offset 16
	.cfi_offset 6, -16
	movq	%rsp, %rbp
	.cfi_def_cfa_register 6
	pushq	%rbx
	subq	$24, %rsp
	.cfi_offset 3, -24
	movq	%rdi, -24(%rbp)
	movq	%rsi, -32(%rbp)
	movq	-24(%rbp), %rax
	movq	%rax, %rdi
	call	_ZNK9__gnu_cxx17__normal_iteratorIPN7segtree4nodeESt6vectorIS2_SaIS2_EEE4baseEv
	movq	(%rax), %rbx
	movq	-32(%rbp), %rax
	movq	%rax, %rdi
	call	_ZNK9__gnu_cxx17__normal_iteratorIPN7segtree4nodeESt6vectorIS2_SaIS2_EEE4baseEv
	movq	(%rax), %rax
	subq	%rax, %rbx
	movq	%rbx, %rdx
	sarq	$3, %rdx
	movabsq	$-6148914691236517205, %rax
	imulq	%rdx, %rax
	movq	-8(%rbp), %rbx
	leave
	.cfi_def_cfa 7, 8
	ret
	.cfi_endproc
.LFE3187:
	.size	_ZN9__gnu_cxxmiIPN7segtree4nodeESt6vectorIS2_SaIS2_EEEENS_17__normal_iteratorIT_T0_E15difference_typeERKSA_SD_, .-_ZN9__gnu_cxxmiIPN7segtree4nodeESt6vectorIS2_SaIS2_EEEENS_17__normal_iteratorIT_T0_E15difference_typeERKSA_SD_
	.section	.text._ZNK9__gnu_cxx17__normal_iteratorIPN7segtree4nodeESt6vectorIS2_SaIS2_EEE4baseEv,"axG",@progbits,_ZNK9__gnu_cxx17__normal_iteratorIPN7segtree4nodeESt6vectorIS2_SaIS2_EEE4baseEv,comdat
	.align 2
	.weak	_ZNK9__gnu_cxx17__normal_iteratorIPN7segtree4nodeESt6vectorIS2_SaIS2_EEE4baseEv
	.type	_ZNK9__gnu_cxx17__normal_iteratorIPN7segtree4nodeESt6vectorIS2_SaIS2_EEE4baseEv, @function
_ZNK9__gnu_cxx17__normal_iteratorIPN7segtree4nodeESt6vectorIS2_SaIS2_EEE4baseEv:
.LFB3188:
	.cfi_startproc
	pushq	%rbp
	.cfi_def_cfa_offset 16
	.cfi_offset 6, -16
	movq	%rsp, %rbp
	.cfi_def_cfa_register 6
	movq	%rdi, -8(%rbp)
	movq	-8(%rbp), %rax
	popq	%rbp
	.cfi_def_cfa 7, 8
	ret
	.cfi_endproc
.LFE3188:
	.size	_ZNK9__gnu_cxx17__normal_iteratorIPN7segtree4nodeESt6vectorIS2_SaIS2_EEE4baseEv, .-_ZNK9__gnu_cxx17__normal_iteratorIPN7segtree4nodeESt6vectorIS2_SaIS2_EEE4baseEv
	.section	.text._ZSt8_DestroyIPN7segtree4nodeEEvT_S3_,"axG",@progbits,_ZSt8_DestroyIPN7segtree4nodeEEvT_S3_,comdat
	.weak	_ZSt8_DestroyIPN7segtree4nodeEEvT_S3_
	.type	_ZSt8_DestroyIPN7segtree4nodeEEvT_S3_, @function
_ZSt8_DestroyIPN7segtree4nodeEEvT_S3_:
.LFB3194:
	.cfi_startproc
	pushq	%rbp
	.cfi_def_cfa_offset 16
	.cfi_offset 6, -16
	movq	%rsp, %rbp
	.cfi_def_cfa_register 6
	subq	$16, %rsp
	movq	%rdi, -8(%rbp)
	movq	%rsi, -16(%rbp)
	movq	-16(%rbp), %rdx
	movq	-8(%rbp), %rax
	movq	%rdx, %rsi
	movq	%rax, %rdi
	call	_ZNSt12_Destroy_auxILb1EE9__destroyIPN7segtree4nodeEEEvT_S5_
	nop
	leave
	.cfi_def_cfa 7, 8
	ret
	.cfi_endproc
.LFE3194:
	.size	_ZSt8_DestroyIPN7segtree4nodeEEvT_S3_, .-_ZSt8_DestroyIPN7segtree4nodeEEvT_S3_
	.section	.text._ZNSt6vectorIN7segtree4nodeESaIS1_EE11_S_max_sizeERKS2_,"axG",@progbits,_ZNSt6vectorIN7segtree4nodeESaIS1_EE11_S_max_sizeERKS2_,comdat
	.weak	_ZNSt6vectorIN7segtree4nodeESaIS1_EE11_S_max_sizeERKS2_
	.type	_ZNSt6vectorIN7segtree4nodeESaIS1_EE11_S_max_sizeERKS2_, @function
_ZNSt6vectorIN7segtree4nodeESaIS1_EE11_S_max_sizeERKS2_:
.LFB3195:
	.cfi_startproc
	pushq	%rbp
	.cfi_def_cfa_offset 16
	.cfi_offset 6, -16
	movq	%rsp, %rbp
	.cfi_def_cfa_register 6
	subq	$64, %rsp
	movq	%rdi, -56(%rbp)
	movq	%fs:40, %rax
	movq	%rax, -8(%rbp)
	xorl	%eax, %eax
	movabsq	$384307168202282325, %rax
	movq	%rax, -48(%rbp)
	movq	-56(%rbp), %rax
	movq	%rax, -32(%rbp)
	movq	-32(%rbp), %rax
	movq	%rax, -24(%rbp)
	movq	-24(%rbp), %rax
	movq	%rax, -16(%rbp)
	movabsq	$384307168202282325, %rax
	nop
	nop
	movq	%rax, -40(%rbp)
	leaq	-40(%rbp), %rdx
	leaq	-48(%rbp), %rax
	movq	%rdx, %rsi
	movq	%rax, %rdi
	call	_ZSt3minImERKT_S2_S2_
	movq	(%rax), %rax
	movq	-8(%rbp), %rdx
	subq	%fs:40, %rdx
	je	.L224
	call	__stack_chk_fail@PLT
.L224:
	leave
	.cfi_def_cfa 7, 8
	ret
	.cfi_endproc
.LFE3195:
	.size	_ZNSt6vectorIN7segtree4nodeESaIS1_EE11_S_max_sizeERKS2_, .-_ZNSt6vectorIN7segtree4nodeESaIS1_EE11_S_max_sizeERKS2_
	.section	.text._ZNKSt12_Vector_baseIN7segtree4nodeESaIS1_EE19_M_get_Tp_allocatorEv,"axG",@progbits,_ZNKSt12_Vector_baseIN7segtree4nodeESaIS1_EE19_M_get_Tp_allocatorEv,comdat
	.align 2
	.weak	_ZNKSt12_Vector_baseIN7segtree4nodeESaIS1_EE19_M_get_Tp_allocatorEv
	.type	_ZNKSt12_Vector_baseIN7segtree4nodeESaIS1_EE19_M_get_Tp_allocatorEv, @function
_ZNKSt12_Vector_baseIN7segtree4nodeESaIS1_EE19_M_get_Tp_allocatorEv:
.LFB3196:
	.cfi_startproc
	pushq	%rbp
	.cfi_def_cfa_offset 16
	.cfi_offset 6, -16
	movq	%rsp, %rbp
	.cfi_def_cfa_register 6
	movq	%rdi, -8(%rbp)
	movq	-8(%rbp), %rax
	popq	%rbp
	.cfi_def_cfa 7, 8
	ret
	.cfi_endproc
.LFE3196:
	.size	_ZNKSt12_Vector_baseIN7segtree4nodeESaIS1_EE19_M_get_Tp_allocatorEv, .-_ZNKSt12_Vector_baseIN7segtree4nodeESaIS1_EE19_M_get_Tp_allocatorEv
	.section	.text._ZSt12__relocate_aIPN7segtree4nodeES2_SaIS1_EET0_T_S5_S4_RT1_,"axG",@progbits,_ZSt12__relocate_aIPN7segtree4nodeES2_SaIS1_EET0_T_S5_S4_RT1_,comdat
	.weak	_ZSt12__relocate_aIPN7segtree4nodeES2_SaIS1_EET0_T_S5_S4_RT1_
	.type	_ZSt12__relocate_aIPN7segtree4nodeES2_SaIS1_EET0_T_S5_S4_RT1_, @function
_ZSt12__relocate_aIPN7segtree4nodeES2_SaIS1_EET0_T_S5_S4_RT1_:
.LFB3198:
	.cfi_startproc
	pushq	%rbp
	.cfi_def_cfa_offset 16
	.cfi_offset 6, -16
	movq	%rsp, %rbp
	.cfi_def_cfa_register 6
	pushq	%r12
	pushq	%rbx
	subq	$32, %rsp
	.cfi_offset 12, -24
	.cfi_offset 3, -32
	movq	%rdi, -24(%rbp)
	movq	%rsi, -32(%rbp)
	movq	%rdx, -40(%rbp)
	movq	%rcx, -48(%rbp)
	movq	-40(%rbp), %rax
	movq	%rax, %rdi
	call	_ZSt12__niter_baseIPN7segtree4nodeEET_S3_
	movq	%rax, %r12
	movq	-32(%rbp), %rax
	movq	%rax, %rdi
	call	_ZSt12__niter_baseIPN7segtree4nodeEET_S3_
	movq	%rax, %rbx
	movq	-24(%rbp), %rax
	movq	%rax, %rdi
	call	_ZSt12__niter_baseIPN7segtree4nodeEET_S3_
	movq	%rax, %rdi
	movq	-48(%rbp), %rax
	movq	%rax, %rcx
	movq	%r12, %rdx
	movq	%rbx, %rsi
	call	_ZSt14__relocate_a_1IPN7segtree4nodeES2_SaIS1_EET0_T_S5_S4_RT1_
	addq	$32, %rsp
	popq	%rbx
	popq	%r12
	popq	%rbp
	.cfi_def_cfa 7, 8
	ret
	.cfi_endproc
.LFE3198:
	.size	_ZSt12__relocate_aIPN7segtree4nodeES2_SaIS1_EET0_T_S5_S4_RT1_, .-_ZSt12__relocate_aIPN7segtree4nodeES2_SaIS1_EET0_T_S5_S4_RT1_
	.section	.text._ZNSt11_Deque_baseIiSaIiEE11_Deque_implC2Ev,"axG",@progbits,_ZNSt11_Deque_baseIiSaIiEE11_Deque_implC5Ev,comdat
	.align 2
	.weak	_ZNSt11_Deque_baseIiSaIiEE11_Deque_implC2Ev
	.type	_ZNSt11_Deque_baseIiSaIiEE11_Deque_implC2Ev, @function
_ZNSt11_Deque_baseIiSaIiEE11_Deque_implC2Ev:
.LFB3200:
	.cfi_startproc
	pushq	%rbp
	.cfi_def_cfa_offset 16
	.cfi_offset 6, -16
	movq	%rsp, %rbp
	.cfi_def_cfa_register 6
	subq	$32, %rsp
	movq	%rdi, -24(%rbp)
	movq	-24(%rbp), %rax
	movq	%rax, -16(%rbp)
	movq	-16(%rbp), %rax
	movq	%rax, -8(%rbp)
	nop
	nop
	movq	-24(%rbp), %rax
	movq	%rax, %rdi
	call	_ZNSt11_Deque_baseIiSaIiEE16_Deque_impl_dataC2Ev
	nop
	leave
	.cfi_def_cfa 7, 8
	ret
	.cfi_endproc
.LFE3200:
	.size	_ZNSt11_Deque_baseIiSaIiEE11_Deque_implC2Ev, .-_ZNSt11_Deque_baseIiSaIiEE11_Deque_implC2Ev
	.weak	_ZNSt11_Deque_baseIiSaIiEE11_Deque_implC1Ev
	.set	_ZNSt11_Deque_baseIiSaIiEE11_Deque_implC1Ev,_ZNSt11_Deque_baseIiSaIiEE11_Deque_implC2Ev
	.section	.text._ZNSt11_Deque_baseIiSaIiEE17_M_initialize_mapEm,"axG",@progbits,_ZNSt11_Deque_baseIiSaIiEE17_M_initialize_mapEm,comdat
	.align 2
	.weak	_ZNSt11_Deque_baseIiSaIiEE17_M_initialize_mapEm
	.type	_ZNSt11_Deque_baseIiSaIiEE17_M_initialize_mapEm, @function
_ZNSt11_Deque_baseIiSaIiEE17_M_initialize_mapEm:
.LFB3202:
	.cfi_startproc
	.cfi_personality 0x9b,DW.ref.__gxx_personality_v0
	.cfi_lsda 0x1b,.LLSDA3202
	pushq	%rbp
	.cfi_def_cfa_offset 16
	.cfi_offset 6, -16
	movq	%rsp, %rbp
	.cfi_def_cfa_register 6
	pushq	%rbx
	subq	$72, %rsp
	.cfi_offset 3, -24
	movq	%rdi, -72(%rbp)
	movq	%rsi, -80(%rbp)
	movq	%fs:40, %rax
	movq	%rax, -24(%rbp)
	xorl	%eax, %eax
	movl	$4, %edi
	call	_ZSt16__deque_buf_sizem
	movq	%rax, %rbx
	movq	-80(%rbp), %rax
	movl	$0, %edx
	divq	%rbx
	addq	$1, %rax
	movq	%rax, -48(%rbp)
	movq	-48(%rbp), %rax
	addq	$2, %rax
	movq	%rax, -56(%rbp)
	movq	$8, -64(%rbp)
	leaq	-56(%rbp), %rdx
	leaq	-64(%rbp), %rax
	movq	%rdx, %rsi
	movq	%rax, %rdi
	call	_ZSt3maxImERKT_S2_S2_
	movq	(%rax), %rdx
	movq	-72(%rbp), %rax
	movq	%rdx, 8(%rax)
	movq	-72(%rbp), %rax
	movq	8(%rax), %rdx
	movq	-72(%rbp), %rax
	movq	%rdx, %rsi
	movq	%rax, %rdi
.LEHB21:
	call	_ZNSt11_Deque_baseIiSaIiEE15_M_allocate_mapEm
.LEHE21:
	movq	-72(%rbp), %rdx
	movq	%rax, (%rdx)
	movq	-72(%rbp), %rax
	movq	(%rax), %rdx
	movq	-72(%rbp), %rax
	movq	8(%rax), %rax
	subq	-48(%rbp), %rax
	shrq	%rax
	salq	$3, %rax
	addq	%rdx, %rax
	movq	%rax, -40(%rbp)
	movq	-48(%rbp), %rax
	leaq	0(,%rax,8), %rdx
	movq	-40(%rbp), %rax
	addq	%rdx, %rax
	movq	%rax, -32(%rbp)
	movq	-32(%rbp), %rdx
	movq	-40(%rbp), %rcx
	movq	-72(%rbp), %rax
	movq	%rcx, %rsi
	movq	%rax, %rdi
.LEHB22:
	call	_ZNSt11_Deque_baseIiSaIiEE15_M_create_nodesEPPiS3_
.LEHE22:
	movq	-72(%rbp), %rax
	leaq	16(%rax), %rdx
	movq	-40(%rbp), %rax
	movq	%rax, %rsi
	movq	%rdx, %rdi
	call	_ZNSt15_Deque_iteratorIiRiPiE11_M_set_nodeEPS1_
	movq	-72(%rbp), %rax
	addq	$48, %rax
	movq	-32(%rbp), %rdx
	subq	$8, %rdx
	movq	%rdx, %rsi
	movq	%rax, %rdi
	call	_ZNSt15_Deque_iteratorIiRiPiE11_M_set_nodeEPS1_
	movq	-72(%rbp), %rax
	movq	24(%rax), %rdx
	movq	-72(%rbp), %rax
	movq	%rdx, 16(%rax)
	movq	-72(%rbp), %rax
	movq	56(%rax), %rbx
	movl	$4, %edi
	call	_ZSt16__deque_buf_sizem
	movq	%rax, %rcx
	movq	-80(%rbp), %rax
	movl	$0, %edx
	divq	%rcx
	movq	%rdx, %rcx
	movq	%rcx, %rax
	salq	$2, %rax
	leaq	(%rbx,%rax), %rdx
	movq	-72(%rbp), %rax
	movq	%rdx, 48(%rax)
	nop
	movq	-24(%rbp), %rax
	subq	%fs:40, %rax
	je	.L235
	jmp	.L238
.L236:
	movq	%rax, %rdi
	call	__cxa_begin_catch@PLT
	movq	-72(%rbp), %rax
	movq	8(%rax), %rdx
	movq	-72(%rbp), %rax
	movq	(%rax), %rcx
	movq	-72(%rbp), %rax
	movq	%rcx, %rsi
	movq	%rax, %rdi
	call	_ZNSt11_Deque_baseIiSaIiEE17_M_deallocate_mapEPPim
	movq	-72(%rbp), %rax
	movq	$0, (%rax)
	movq	-72(%rbp), %rax
	movq	$0, 8(%rax)
	movq	-24(%rbp), %rax
	subq	%fs:40, %rax
	je	.L232
	call	__stack_chk_fail@PLT
.L232:
.LEHB23:
	call	__cxa_rethrow@PLT
.LEHE23:
.L237:
	movq	%rax, %rbx
	call	__cxa_end_catch@PLT
	movq	%rbx, %rax
	movq	-24(%rbp), %rdx
	subq	%fs:40, %rdx
	je	.L234
	call	__stack_chk_fail@PLT
.L234:
	movq	%rax, %rdi
.LEHB24:
	call	_Unwind_Resume@PLT
.LEHE24:
.L238:
	call	__stack_chk_fail@PLT
.L235:
	movq	-8(%rbp), %rbx
	leave
	.cfi_def_cfa 7, 8
	ret
	.cfi_endproc
.LFE3202:
	.section	.gcc_except_table
	.align 4
.LLSDA3202:
	.byte	0xff
	.byte	0x9b
	.uleb128 .LLSDATT3202-.LLSDATTD3202
.LLSDATTD3202:
	.byte	0x1
	.uleb128 .LLSDACSE3202-.LLSDACSB3202
.LLSDACSB3202:
	.uleb128 .LEHB21-.LFB3202
	.uleb128 .LEHE21-.LEHB21
	.uleb128 0
	.uleb128 0
	.uleb128 .LEHB22-.LFB3202
	.uleb128 .LEHE22-.LEHB22
	.uleb128 .L236-.LFB3202
	.uleb128 0x1
	.uleb128 .LEHB23-.LFB3202
	.uleb128 .LEHE23-.LEHB23
	.uleb128 .L237-.LFB3202
	.uleb128 0
	.uleb128 .LEHB24-.LFB3202
	.uleb128 .LEHE24-.LEHB24
	.uleb128 0
	.uleb128 0
.LLSDACSE3202:
	.byte	0x1
	.byte	0
	.align 4
	.long	0

.LLSDATT3202:
	.section	.text._ZNSt11_Deque_baseIiSaIiEE17_M_initialize_mapEm,"axG",@progbits,_ZNSt11_Deque_baseIiSaIiEE17_M_initialize_mapEm,comdat
	.size	_ZNSt11_Deque_baseIiSaIiEE17_M_initialize_mapEm, .-_ZNSt11_Deque_baseIiSaIiEE17_M_initialize_mapEm
	.section	.text._ZNSt11_Deque_baseIiSaIiEE16_M_destroy_nodesEPPiS3_,"axG",@progbits,_ZNSt11_Deque_baseIiSaIiEE16_M_destroy_nodesEPPiS3_,comdat
	.align 2
	.weak	_ZNSt11_Deque_baseIiSaIiEE16_M_destroy_nodesEPPiS3_
	.type	_ZNSt11_Deque_baseIiSaIiEE16_M_destroy_nodesEPPiS3_, @function
_ZNSt11_Deque_baseIiSaIiEE16_M_destroy_nodesEPPiS3_:
.LFB3203:
	.cfi_startproc
	pushq	%rbp
	.cfi_def_cfa_offset 16
	.cfi_offset 6, -16
	movq	%rsp, %rbp
	.cfi_def_cfa_register 6
	subq	$48, %rsp
	movq	%rdi, -24(%rbp)
	movq	%rsi, -32(%rbp)
	movq	%rdx, -40(%rbp)
	movq	-32(%rbp), %rax
	movq	%rax, -8(%rbp)
	jmp	.L240
.L241:
	movq	-8(%rbp), %rax
	movq	(%rax), %rdx
	movq	-24(%rbp), %rax
	movq	%rdx, %rsi
	movq	%rax, %rdi
	call	_ZNSt11_Deque_baseIiSaIiEE18_M_deallocate_nodeEPi
	addq	$8, -8(%rbp)
.L240:
	movq	-8(%rbp), %rax
	cmpq	-40(%rbp), %rax
	jb	.L241
	nop
	nop
	leave
	.cfi_def_cfa 7, 8
	ret
	.cfi_endproc
.LFE3203:
	.size	_ZNSt11_Deque_baseIiSaIiEE16_M_destroy_nodesEPPiS3_, .-_ZNSt11_Deque_baseIiSaIiEE16_M_destroy_nodesEPPiS3_
	.section	.text._ZNSt11_Deque_baseIiSaIiEE17_M_deallocate_mapEPPim,"axG",@progbits,_ZNSt11_Deque_baseIiSaIiEE17_M_deallocate_mapEPPim,comdat
	.align 2
	.weak	_ZNSt11_Deque_baseIiSaIiEE17_M_deallocate_mapEPPim
	.type	_ZNSt11_Deque_baseIiSaIiEE17_M_deallocate_mapEPPim, @function
_ZNSt11_Deque_baseIiSaIiEE17_M_deallocate_mapEPPim:
.LFB3204:
	.cfi_startproc
	pushq	%rbp
	.cfi_def_cfa_offset 16
	.cfi_offset 6, -16
	movq	%rsp, %rbp
	.cfi_def_cfa_register 6
	subq	$64, %rsp
	movq	%rdi, -40(%rbp)
	movq	%rsi, -48(%rbp)
	movq	%rdx, -56(%rbp)
	movq	%fs:40, %rax
	movq	%rax, -8(%rbp)
	xorl	%eax, %eax
	leaq	-25(%rbp), %rax
	movq	-40(%rbp), %rdx
	movq	%rdx, %rsi
	movq	%rax, %rdi
	call	_ZNKSt11_Deque_baseIiSaIiEE20_M_get_map_allocatorEv
	movq	-48(%rbp), %rax
	movq	%rax, -24(%rbp)
	movq	-56(%rbp), %rax
	movq	%rax, -16(%rbp)
	movq	-16(%rbp), %rdx
	movq	-24(%rbp), %rcx
	leaq	-25(%rbp), %rax
	movq	%rcx, %rsi
	movq	%rax, %rdi
	call	_ZNSt15__new_allocatorIPiE10deallocateEPS0_m
	nop
	leaq	-25(%rbp), %rax
	movq	%rax, %rdi
	call	_ZNSt15__new_allocatorIPiED2Ev
	nop
	nop
	movq	-8(%rbp), %rax
	subq	%fs:40, %rax
	je	.L243
	call	__stack_chk_fail@PLT
.L243:
	leave
	.cfi_def_cfa 7, 8
	ret
	.cfi_endproc
.LFE3204:
	.size	_ZNSt11_Deque_baseIiSaIiEE17_M_deallocate_mapEPPim, .-_ZNSt11_Deque_baseIiSaIiEE17_M_deallocate_mapEPPim
	.section	.text._ZNSt15_Deque_iteratorIiRiPiEC2ERKS2_,"axG",@progbits,_ZNSt15_Deque_iteratorIiRiPiEC5ERKS2_,comdat
	.align 2
	.weak	_ZNSt15_Deque_iteratorIiRiPiEC2ERKS2_
	.type	_ZNSt15_Deque_iteratorIiRiPiEC2ERKS2_, @function
_ZNSt15_Deque_iteratorIiRiPiEC2ERKS2_:
.LFB3206:
	.cfi_startproc
	pushq	%rbp
	.cfi_def_cfa_offset 16
	.cfi_offset 6, -16
	movq	%rsp, %rbp
	.cfi_def_cfa_register 6
	movq	%rdi, -8(%rbp)
	movq	%rsi, -16(%rbp)
	movq	-16(%rbp), %rax
	movq	(%rax), %rdx
	movq	-8(%rbp), %rax
	movq	%rdx, (%rax)
	movq	-16(%rbp), %rax
	movq	8(%rax), %rdx
	movq	-8(%rbp), %rax
	movq	%rdx, 8(%rax)
	movq	-16(%rbp), %rax
	movq	16(%rax), %rdx
	movq	-8(%rbp), %rax
	movq	%rdx, 16(%rax)
	movq	-16(%rbp), %rax
	movq	24(%rax), %rdx
	movq	-8(%rbp), %rax
	movq	%rdx, 24(%rax)
	nop
	popq	%rbp
	.cfi_def_cfa 7, 8
	ret
	.cfi_endproc
.LFE3206:
	.size	_ZNSt15_Deque_iteratorIiRiPiEC2ERKS2_, .-_ZNSt15_Deque_iteratorIiRiPiEC2ERKS2_
	.weak	_ZNSt15_Deque_iteratorIiRiPiEC1ERKS2_
	.set	_ZNSt15_Deque_iteratorIiRiPiEC1ERKS2_,_ZNSt15_Deque_iteratorIiRiPiEC2ERKS2_
	.section	.text._ZNSt5dequeIiSaIiEE12emplace_backIJiEEERiDpOT_,"axG",@progbits,_ZNSt5dequeIiSaIiEE12emplace_backIJiEEERiDpOT_,comdat
	.align 2
	.weak	_ZNSt5dequeIiSaIiEE12emplace_backIJiEEERiDpOT_
	.type	_ZNSt5dequeIiSaIiEE12emplace_backIJiEEERiDpOT_, @function
_ZNSt5dequeIiSaIiEE12emplace_backIJiEEERiDpOT_:
.LFB3209:
	.cfi_startproc
	pushq	%rbp
	.cfi_def_cfa_offset 16
	.cfi_offset 6, -16
	movq	%rsp, %rbp
	.cfi_def_cfa_register 6
	pushq	%rbx
	subq	$72, %rsp
	.cfi_offset 3, -24
	movq	%rdi, -72(%rbp)
	movq	%rsi, -80(%rbp)
	movq	-72(%rbp), %rax
	movq	48(%rax), %rdx
	movq	-72(%rbp), %rax
	movq	64(%rax), %rax
	subq	$4, %rax
	cmpq	%rax, %rdx
	je	.L246
	movq	-80(%rbp), %rax
	movq	%rax, %rdi
	call	_ZSt7forwardIiEOT_RNSt16remove_referenceIS0_E4typeE
	movq	-72(%rbp), %rdx
	movq	48(%rdx), %rdx
	movq	-72(%rbp), %rcx
	movq	%rcx, -64(%rbp)
	movq	%rdx, -56(%rbp)
	movq	%rax, -48(%rbp)
	movq	-48(%rbp), %rax
	movq	%rax, %rdi
	call	_ZSt7forwardIiEOT_RNSt16remove_referenceIS0_E4typeE
	movq	-64(%rbp), %rdx
	movq	%rdx, -40(%rbp)
	movq	-56(%rbp), %rdx
	movq	%rdx, -32(%rbp)
	movq	%rax, -24(%rbp)
	movq	-32(%rbp), %rax
	movq	%rax, %rsi
	movl	$4, %edi
	call	_ZnwmPv
	movq	%rax, %rbx
	movq	-24(%rbp), %rax
	movq	%rax, %rdi
	call	_ZSt7forwardIiEOT_RNSt16remove_referenceIS0_E4typeE
	movl	(%rax), %eax
	movl	%eax, (%rbx)
	nop
	nop
	movq	-72(%rbp), %rax
	movq	48(%rax), %rax
	leaq	4(%rax), %rdx
	movq	-72(%rbp), %rax
	movq	%rdx, 48(%rax)
	jmp	.L247
.L246:
	movq	-80(%rbp), %rax
	movq	%rax, %rdi
	call	_ZSt7forwardIiEOT_RNSt16remove_referenceIS0_E4typeE
	movq	%rax, %rdx
	movq	-72(%rbp), %rax
	movq	%rdx, %rsi
	movq	%rax, %rdi
	call	_ZNSt5dequeIiSaIiEE16_M_push_back_auxIJiEEEvDpOT_
.L247:
	movq	-72(%rbp), %rax
	movq	%rax, %rdi
	call	_ZNSt5dequeIiSaIiEE4backEv
	movq	-8(%rbp), %rbx
	leave
	.cfi_def_cfa 7, 8
	ret
	.cfi_endproc
.LFE3209:
	.size	_ZNSt5dequeIiSaIiEE12emplace_backIJiEEERiDpOT_, .-_ZNSt5dequeIiSaIiEE12emplace_backIJiEEERiDpOT_
	.section	.text._ZSteqRKSt15_Deque_iteratorIiRiPiES4_,"axG",@progbits,_ZSteqRKSt15_Deque_iteratorIiRiPiES4_,comdat
	.weak	_ZSteqRKSt15_Deque_iteratorIiRiPiES4_
	.type	_ZSteqRKSt15_Deque_iteratorIiRiPiES4_, @function
_ZSteqRKSt15_Deque_iteratorIiRiPiES4_:
.LFB3210:
	.cfi_startproc
	pushq	%rbp
	.cfi_def_cfa_offset 16
	.cfi_offset 6, -16
	movq	%rsp, %rbp
	.cfi_def_cfa_register 6
	movq	%rdi, -8(%rbp)
	movq	%rsi, -16(%rbp)
	movq	-8(%rbp), %rax
	movq	(%rax), %rdx
	movq	-16(%rbp), %rax
	movq	(%rax), %rax
	cmpq	%rax, %rdx
	sete	%al
	popq	%rbp
	.cfi_def_cfa 7, 8
	ret
	.cfi_endproc
.LFE3210:
	.size	_ZSteqRKSt15_Deque_iteratorIiRiPiES4_, .-_ZSteqRKSt15_Deque_iteratorIiRiPiES4_
	.section	.text._ZNKSt15_Deque_iteratorIiRiPiEdeEv,"axG",@progbits,_ZNKSt15_Deque_iteratorIiRiPiEdeEv,comdat
	.align 2
	.weak	_ZNKSt15_Deque_iteratorIiRiPiEdeEv
	.type	_ZNKSt15_Deque_iteratorIiRiPiEdeEv, @function
_ZNKSt15_Deque_iteratorIiRiPiEdeEv:
.LFB3211:
	.cfi_startproc
	pushq	%rbp
	.cfi_def_cfa_offset 16
	.cfi_offset 6, -16
	movq	%rsp, %rbp
	.cfi_def_cfa_register 6
	movq	%rdi, -8(%rbp)
	movq	-8(%rbp), %rax
	movq	(%rax), %rax
	popq	%rbp
	.cfi_def_cfa 7, 8
	ret
	.cfi_endproc
.LFE3211:
	.size	_ZNKSt15_Deque_iteratorIiRiPiEdeEv, .-_ZNKSt15_Deque_iteratorIiRiPiEdeEv
	.section	.text._ZNSt5dequeIiSaIiEE16_M_pop_front_auxEv,"axG",@progbits,_ZNSt5dequeIiSaIiEE16_M_pop_front_auxEv,comdat
	.align 2
	.weak	_ZNSt5dequeIiSaIiEE16_M_pop_front_auxEv
	.type	_ZNSt5dequeIiSaIiEE16_M_pop_front_auxEv, @function
_ZNSt5dequeIiSaIiEE16_M_pop_front_auxEv:
.LFB3213:
	.cfi_startproc
	pushq	%rbp
	.cfi_def_cfa_offset 16
	.cfi_offset 6, -16
	movq	%rsp, %rbp
	.cfi_def_cfa_register 6
	pushq	%rbx
	subq	$56, %rsp
	.cfi_offset 3, -24
	movq	%rdi, -56(%rbp)
	movq	-56(%rbp), %rax
	movq	16(%rax), %rbx
	movq	-56(%rbp), %rax
	movq	%rax, %rdi
	call	_ZNSt11_Deque_baseIiSaIiEE19_M_get_Tp_allocatorEv
	movq	%rax, -48(%rbp)
	movq	%rbx, -40(%rbp)
	movq	-48(%rbp), %rax
	movq	%rax, -32(%rbp)
	movq	-40(%rbp), %rax
	movq	%rax, -24(%rbp)
	nop
	nop
	movq	-56(%rbp), %rax
	movq	-56(%rbp), %rdx
	movq	24(%rdx), %rdx
	movq	%rdx, %rsi
	movq	%rax, %rdi
	call	_ZNSt11_Deque_baseIiSaIiEE18_M_deallocate_nodeEPi
	movq	-56(%rbp), %rax
	addq	$16, %rax
	movq	-56(%rbp), %rdx
	movq	40(%rdx), %rdx
	addq	$8, %rdx
	movq	%rdx, %rsi
	movq	%rax, %rdi
	call	_ZNSt15_Deque_iteratorIiRiPiE11_M_set_nodeEPS1_
	movq	-56(%rbp), %rax
	movq	24(%rax), %rdx
	movq	-56(%rbp), %rax
	movq	%rdx, 16(%rax)
	nop
	movq	-8(%rbp), %rbx
	leave
	.cfi_def_cfa 7, 8
	ret
	.cfi_endproc
.LFE3213:
	.size	_ZNSt5dequeIiSaIiEE16_M_pop_front_auxEv, .-_ZNSt5dequeIiSaIiEE16_M_pop_front_auxEv
	.section	.rodata
	.align 8
.LC3:
	.string	"cannot create std::deque larger than max_size()"
	.section	.text._ZNSt5dequeIiSaIiEE16_M_push_back_auxIJRKiEEEvDpOT_,"axG",@progbits,_ZNSt5dequeIiSaIiEE16_M_push_back_auxIJRKiEEEvDpOT_,comdat
	.align 2
	.weak	_ZNSt5dequeIiSaIiEE16_M_push_back_auxIJRKiEEEvDpOT_
	.type	_ZNSt5dequeIiSaIiEE16_M_push_back_auxIJRKiEEEvDpOT_, @function
_ZNSt5dequeIiSaIiEE16_M_push_back_auxIJRKiEEEvDpOT_:
.LFB3215:
	.cfi_startproc
	pushq	%rbp
	.cfi_def_cfa_offset 16
	.cfi_offset 6, -16
	movq	%rsp, %rbp
	.cfi_def_cfa_register 6
	pushq	%rbx
	subq	$72, %rsp
	.cfi_offset 3, -24
	movq	%rdi, -72(%rbp)
	movq	%rsi, -80(%rbp)
	movq	-72(%rbp), %rax
	movq	%rax, %rdi
	call	_ZNKSt5dequeIiSaIiEE4sizeEv
	movq	%rax, %rbx
	movq	-72(%rbp), %rax
	movq	%rax, %rdi
	call	_ZNKSt5dequeIiSaIiEE8max_sizeEv
	cmpq	%rax, %rbx
	sete	%al
	testb	%al, %al
	je	.L255
	leaq	.LC3(%rip), %rax
	movq	%rax, %rdi
	call	_ZSt20__throw_length_errorPKc@PLT
.L255:
	movq	-72(%rbp), %rax
	movl	$1, %esi
	movq	%rax, %rdi
	call	_ZNSt5dequeIiSaIiEE22_M_reserve_map_at_backEm
	movq	-72(%rbp), %rax
	movq	-72(%rbp), %rdx
	movq	72(%rdx), %rdx
	leaq	8(%rdx), %rbx
	movq	%rax, %rdi
	call	_ZNSt11_Deque_baseIiSaIiEE16_M_allocate_nodeEv
	movq	%rax, (%rbx)
	movq	-80(%rbp), %rax
	movq	%rax, %rdi
	call	_ZSt7forwardIRKiEOT_RNSt16remove_referenceIS2_E4typeE
	movq	-72(%rbp), %rdx
	movq	48(%rdx), %rdx
	movq	-72(%rbp), %rcx
	movq	%rcx, -64(%rbp)
	movq	%rdx, -56(%rbp)
	movq	%rax, -48(%rbp)
	movq	-48(%rbp), %rax
	movq	%rax, %rdi
	call	_ZSt7forwardIRKiEOT_RNSt16remove_referenceIS2_E4typeE
	movq	-64(%rbp), %rdx
	movq	%rdx, -40(%rbp)
	movq	-56(%rbp), %rdx
	movq	%rdx, -32(%rbp)
	movq	%rax, -24(%rbp)
	movq	-32(%rbp), %rax
	movq	%rax, %rsi
	movl	$4, %edi
	call	_ZnwmPv
	movq	%rax, %rbx
	movq	-24(%rbp), %rax
	movq	%rax, %rdi
	call	_ZSt7forwardIRKiEOT_RNSt16remove_referenceIS2_E4typeE
	movl	(%rax), %eax
	movl	%eax, (%rbx)
	nop
	nop
	movq	-72(%rbp), %rax
	addq	$48, %rax
	movq	-72(%rbp), %rdx
	movq	72(%rdx), %rdx
	addq	$8, %rdx
	movq	%rdx, %rsi
	movq	%rax, %rdi
	call	_ZNSt15_Deque_iteratorIiRiPiE11_M_set_nodeEPS1_
	movq	-72(%rbp), %rax
	movq	56(%rax), %rdx
	movq	-72(%rbp), %rax
	movq	%rdx, 48(%rax)
	nop
	movq	-8(%rbp), %rbx
	leave
	.cfi_def_cfa 7, 8
	ret
	.cfi_endproc
.LFE3215:
	.size	_ZNSt5dequeIiSaIiEE16_M_push_back_auxIJRKiEEEvDpOT_, .-_ZNSt5dequeIiSaIiEE16_M_push_back_auxIJRKiEEEvDpOT_
	.section	.text._ZNSt6vectorIiSaIiEE11_S_max_sizeERKS0_,"axG",@progbits,_ZNSt6vectorIiSaIiEE11_S_max_sizeERKS0_,comdat
	.weak	_ZNSt6vectorIiSaIiEE11_S_max_sizeERKS0_
	.type	_ZNSt6vectorIiSaIiEE11_S_max_sizeERKS0_, @function
_ZNSt6vectorIiSaIiEE11_S_max_sizeERKS0_:
.LFB3216:
	.cfi_startproc
	pushq	%rbp
	.cfi_def_cfa_offset 16
	.cfi_offset 6, -16
	movq	%rsp, %rbp
	.cfi_def_cfa_register 6
	subq	$64, %rsp
	movq	%rdi, -56(%rbp)
	movq	%fs:40, %rax
	movq	%rax, -8(%rbp)
	xorl	%eax, %eax
	movabsq	$2305843009213693951, %rax
	movq	%rax, -48(%rbp)
	movq	-56(%rbp), %rax
	movq	%rax, -32(%rbp)
	movq	-32(%rbp), %rax
	movq	%rax, -24(%rbp)
	movq	-24(%rbp), %rax
	movq	%rax, -16(%rbp)
	movabsq	$2305843009213693951, %rax
	nop
	nop
	movq	%rax, -40(%rbp)
	leaq	-40(%rbp), %rdx
	leaq	-48(%rbp), %rax
	movq	%rdx, %rsi
	movq	%rax, %rdi
	call	_ZSt3minImERKT_S2_S2_
	movq	(%rax), %rax
	movq	-8(%rbp), %rdx
	subq	%fs:40, %rdx
	je	.L261
	call	__stack_chk_fail@PLT
.L261:
	leave
	.cfi_def_cfa 7, 8
	ret
	.cfi_endproc
.LFE3216:
	.size	_ZNSt6vectorIiSaIiEE11_S_max_sizeERKS0_, .-_ZNSt6vectorIiSaIiEE11_S_max_sizeERKS0_
	.section	.text._ZNSt12_Vector_baseIiSaIiEE12_Vector_implC2ERKS0_,"axG",@progbits,_ZNSt12_Vector_baseIiSaIiEE12_Vector_implC5ERKS0_,comdat
	.align 2
	.weak	_ZNSt12_Vector_baseIiSaIiEE12_Vector_implC2ERKS0_
	.type	_ZNSt12_Vector_baseIiSaIiEE12_Vector_implC2ERKS0_, @function
_ZNSt12_Vector_baseIiSaIiEE12_Vector_implC2ERKS0_:
.LFB3221:
	.cfi_startproc
	pushq	%rbp
	.cfi_def_cfa_offset 16
	.cfi_offset 6, -16
	movq	%rsp, %rbp
	.cfi_def_cfa_register 6
	subq	$48, %rsp
	movq	%rdi, -40(%rbp)
	movq	%rsi, -48(%rbp)
	movq	-40(%rbp), %rax
	movq	%rax, -32(%rbp)
	movq	-48(%rbp), %rax
	movq	%rax, -24(%rbp)
	movq	-32(%rbp), %rax
	movq	%rax, -16(%rbp)
	movq	-24(%rbp), %rax
	movq	%rax, -8(%rbp)
	nop
	nop
	movq	-40(%rbp), %rax
	movq	%rax, %rdi
	call	_ZNSt12_Vector_baseIiSaIiEE17_Vector_impl_dataC2Ev
	nop
	leave
	.cfi_def_cfa 7, 8
	ret
	.cfi_endproc
.LFE3221:
	.size	_ZNSt12_Vector_baseIiSaIiEE12_Vector_implC2ERKS0_, .-_ZNSt12_Vector_baseIiSaIiEE12_Vector_implC2ERKS0_
	.weak	_ZNSt12_Vector_baseIiSaIiEE12_Vector_implC1ERKS0_
	.set	_ZNSt12_Vector_baseIiSaIiEE12_Vector_implC1ERKS0_,_ZNSt12_Vector_baseIiSaIiEE12_Vector_implC2ERKS0_
	.section	.text._ZNSt12_Vector_baseIiSaIiEE17_M_create_storageEm,"axG",@progbits,_ZNSt12_Vector_baseIiSaIiEE17_M_create_storageEm,comdat
	.align 2
	.weak	_ZNSt12_Vector_baseIiSaIiEE17_M_create_storageEm
	.type	_ZNSt12_Vector_baseIiSaIiEE17_M_create_storageEm, @function
_ZNSt12_Vector_baseIiSaIiEE17_M_create_storageEm:
.LFB3223:
	.cfi_startproc
	pushq	%rbp
	.cfi_def_cfa_offset 16
	.cfi_offset 6, -16
	movq	%rsp, %rbp
	.cfi_def_cfa_register 6
	subq	$16, %rsp
	movq	%rdi, -8(%rbp)
	movq	%rsi, -16(%rbp)
	movq	-16(%rbp), %rdx
	movq	-8(%rbp), %rax
	movq	%rdx, %rsi
	movq	%rax, %rdi
	call	_ZNSt12_Vector_baseIiSaIiEE11_M_allocateEm
	movq	-8(%rbp), %rdx
	movq	%rax, (%rdx)
	movq	-8(%rbp), %rax
	movq	(%rax), %rdx
	movq	-8(%rbp), %rax
	movq	%rdx, 8(%rax)
	movq	-8(%rbp), %rax
	movq	(%rax), %rax
	movq	-16(%rbp), %rdx
	salq	$2, %rdx
	addq	%rax, %rdx
	movq	-8(%rbp), %rax
	movq	%rdx, 16(%rax)
	nop
	leave
	.cfi_def_cfa 7, 8
	ret
	.cfi_endproc
.LFE3223:
	.size	_ZNSt12_Vector_baseIiSaIiEE17_M_create_storageEm, .-_ZNSt12_Vector_baseIiSaIiEE17_M_create_storageEm
	.section	.text._ZNSt12_Vector_baseIiSaIiEE13_M_deallocateEPim,"axG",@progbits,_ZNSt12_Vector_baseIiSaIiEE13_M_deallocateEPim,comdat
	.align 2
	.weak	_ZNSt12_Vector_baseIiSaIiEE13_M_deallocateEPim
	.type	_ZNSt12_Vector_baseIiSaIiEE13_M_deallocateEPim, @function
_ZNSt12_Vector_baseIiSaIiEE13_M_deallocateEPim:
.LFB3224:
	.cfi_startproc
	pushq	%rbp
	.cfi_def_cfa_offset 16
	.cfi_offset 6, -16
	movq	%rsp, %rbp
	.cfi_def_cfa_register 6
	subq	$64, %rsp
	movq	%rdi, -40(%rbp)
	movq	%rsi, -48(%rbp)
	movq	%rdx, -56(%rbp)
	cmpq	$0, -48(%rbp)
	je	.L266
	movq	-40(%rbp), %rax
	movq	%rax, -24(%rbp)
	movq	-48(%rbp), %rax
	movq	%rax, -16(%rbp)
	movq	-56(%rbp), %rax
	movq	%rax, -8(%rbp)
	movq	-8(%rbp), %rdx
	movq	-16(%rbp), %rcx
	movq	-24(%rbp), %rax
	movq	%rcx, %rsi
	movq	%rax, %rdi
	call	_ZNSt15__new_allocatorIiE10deallocateEPim
	nop
.L266:
	nop
	leave
	.cfi_def_cfa 7, 8
	ret
	.cfi_endproc
.LFE3224:
	.size	_ZNSt12_Vector_baseIiSaIiEE13_M_deallocateEPim, .-_ZNSt12_Vector_baseIiSaIiEE13_M_deallocateEPim
	.section	.text._ZSt27__uninitialized_default_n_aIPimiET_S1_T0_RSaIT1_E,"axG",@progbits,_ZSt27__uninitialized_default_n_aIPimiET_S1_T0_RSaIT1_E,comdat
	.weak	_ZSt27__uninitialized_default_n_aIPimiET_S1_T0_RSaIT1_E
	.type	_ZSt27__uninitialized_default_n_aIPimiET_S1_T0_RSaIT1_E, @function
_ZSt27__uninitialized_default_n_aIPimiET_S1_T0_RSaIT1_E:
.LFB3225:
	.cfi_startproc
	pushq	%rbp
	.cfi_def_cfa_offset 16
	.cfi_offset 6, -16
	movq	%rsp, %rbp
	.cfi_def_cfa_register 6
	subq	$32, %rsp
	movq	%rdi, -8(%rbp)
	movq	%rsi, -16(%rbp)
	movq	%rdx, -24(%rbp)
	movq	-16(%rbp), %rdx
	movq	-8(%rbp), %rax
	movq	%rdx, %rsi
	movq	%rax, %rdi
	call	_ZSt25__uninitialized_default_nIPimET_S1_T0_
	leave
	.cfi_def_cfa 7, 8
	ret
	.cfi_endproc
.LFE3225:
	.size	_ZSt27__uninitialized_default_n_aIPimiET_S1_T0_RSaIT1_E, .-_ZSt27__uninitialized_default_n_aIPimiET_S1_T0_RSaIT1_E
	.section	.text._ZSt8_DestroyIPiEvT_S1_,"axG",@progbits,_ZSt8_DestroyIPiEvT_S1_,comdat
	.weak	_ZSt8_DestroyIPiEvT_S1_
	.type	_ZSt8_DestroyIPiEvT_S1_, @function
_ZSt8_DestroyIPiEvT_S1_:
.LFB3226:
	.cfi_startproc
	pushq	%rbp
	.cfi_def_cfa_offset 16
	.cfi_offset 6, -16
	movq	%rsp, %rbp
	.cfi_def_cfa_register 6
	subq	$16, %rsp
	movq	%rdi, -8(%rbp)
	movq	%rsi, -16(%rbp)
	movq	-16(%rbp), %rdx
	movq	-8(%rbp), %rax
	movq	%rdx, %rsi
	movq	%rax, %rdi
	call	_ZNSt12_Destroy_auxILb1EE9__destroyIPiEEvT_S3_
	nop
	leave
	.cfi_def_cfa 7, 8
	ret
	.cfi_endproc
.LFE3226:
	.size	_ZSt8_DestroyIPiEvT_S1_, .-_ZSt8_DestroyIPiEvT_S1_
	.section	.text._ZN9__gnu_cxx17__normal_iteratorIPKiSt6vectorIiSaIiEEEC2ERKS2_,"axG",@progbits,_ZN9__gnu_cxx17__normal_iteratorIPKiSt6vectorIiSaIiEEEC5ERKS2_,comdat
	.align 2
	.weak	_ZN9__gnu_cxx17__normal_iteratorIPKiSt6vectorIiSaIiEEEC2ERKS2_
	.type	_ZN9__gnu_cxx17__normal_iteratorIPKiSt6vectorIiSaIiEEEC2ERKS2_, @function
_ZN9__gnu_cxx17__normal_iteratorIPKiSt6vectorIiSaIiEEEC2ERKS2_:
.LFB3229:
	.cfi_startproc
	pushq	%rbp
	.cfi_def_cfa_offset 16
	.cfi_offset 6, -16
	movq	%rsp, %rbp
	.cfi_def_cfa_register 6
	movq	%rdi, -8(%rbp)
	movq	%rsi, -16(%rbp)
	movq	-16(%rbp), %rax
	movq	(%rax), %rdx
	movq	-8(%rbp), %rax
	movq	%rdx, (%rax)
	nop
	popq	%rbp
	.cfi_def_cfa 7, 8
	ret
	.cfi_endproc
.LFE3229:
	.size	_ZN9__gnu_cxx17__normal_iteratorIPKiSt6vectorIiSaIiEEEC2ERKS2_, .-_ZN9__gnu_cxx17__normal_iteratorIPKiSt6vectorIiSaIiEEEC2ERKS2_
	.weak	_ZN9__gnu_cxx17__normal_iteratorIPKiSt6vectorIiSaIiEEEC1ERKS2_
	.set	_ZN9__gnu_cxx17__normal_iteratorIPKiSt6vectorIiSaIiEEEC1ERKS2_,_ZN9__gnu_cxx17__normal_iteratorIPKiSt6vectorIiSaIiEEEC2ERKS2_
	.section	.text._ZSt18uninitialized_copyIN9__gnu_cxx17__normal_iteratorIPKiSt6vectorIiSaIiEEEEPiET0_T_SA_S9_,"axG",@progbits,_ZSt18uninitialized_copyIN9__gnu_cxx17__normal_iteratorIPKiSt6vectorIiSaIiEEEEPiET0_T_SA_S9_,comdat
	.weak	_ZSt18uninitialized_copyIN9__gnu_cxx17__normal_iteratorIPKiSt6vectorIiSaIiEEEEPiET0_T_SA_S9_
	.type	_ZSt18uninitialized_copyIN9__gnu_cxx17__normal_iteratorIPKiSt6vectorIiSaIiEEEEPiET0_T_SA_S9_, @function
_ZSt18uninitialized_copyIN9__gnu_cxx17__normal_iteratorIPKiSt6vectorIiSaIiEEEEPiET0_T_SA_S9_:
.LFB3231:
	.cfi_startproc
	pushq	%rbp
	.cfi_def_cfa_offset 16
	.cfi_offset 6, -16
	movq	%rsp, %rbp
	.cfi_def_cfa_register 6
	subq	$48, %rsp
	movq	%rdi, -24(%rbp)
	movq	%rsi, -32(%rbp)
	movq	%rdx, -40(%rbp)
	movb	$1, -2(%rbp)
	movb	$1, -1(%rbp)
	movq	-40(%rbp), %rdx
	movq	-32(%rbp), %rcx
	movq	-24(%rbp), %rax
	movq	%rcx, %rsi
	movq	%rax, %rdi
	call	_ZNSt20__uninitialized_copyILb1EE13__uninit_copyIN9__gnu_cxx17__normal_iteratorIPKiSt6vectorIiSaIiEEEEPiEET0_T_SC_SB_
	leave
	.cfi_def_cfa 7, 8
	ret
	.cfi_endproc
.LFE3231:
	.size	_ZSt18uninitialized_copyIN9__gnu_cxx17__normal_iteratorIPKiSt6vectorIiSaIiEEEEPiET0_T_SA_S9_, .-_ZSt18uninitialized_copyIN9__gnu_cxx17__normal_iteratorIPKiSt6vectorIiSaIiEEEEPiET0_T_SA_S9_
	.section	.text._ZSt3maxImERKT_S2_S2_,"axG",@progbits,_ZSt3maxImERKT_S2_S2_,comdat
	.weak	_ZSt3maxImERKT_S2_S2_
	.type	_ZSt3maxImERKT_S2_S2_, @function
_ZSt3maxImERKT_S2_S2_:
.LFB3287:
	.cfi_startproc
	pushq	%rbp
	.cfi_def_cfa_offset 16
	.cfi_offset 6, -16
	movq	%rsp, %rbp
	.cfi_def_cfa_register 6
	movq	%rdi, -8(%rbp)
	movq	%rsi, -16(%rbp)
	movq	-8(%rbp), %rax
	movq	(%rax), %rdx
	movq	-16(%rbp), %rax
	movq	(%rax), %rax
	cmpq	%rax, %rdx
	jnb	.L274
	movq	-16(%rbp), %rax
	jmp	.L275
.L274:
	movq	-8(%rbp), %rax
.L275:
	popq	%rbp
	.cfi_def_cfa 7, 8
	ret
	.cfi_endproc
.LFE3287:
	.size	_ZSt3maxImERKT_S2_S2_, .-_ZSt3maxImERKT_S2_S2_
	.section	.text._ZNSt15__new_allocatorIN7segtree4nodeEE10deallocateEPS1_m,"axG",@progbits,_ZNSt15__new_allocatorIN7segtree4nodeEE10deallocateEPS1_m,comdat
	.align 2
	.weak	_ZNSt15__new_allocatorIN7segtree4nodeEE10deallocateEPS1_m
	.type	_ZNSt15__new_allocatorIN7segtree4nodeEE10deallocateEPS1_m, @function
_ZNSt15__new_allocatorIN7segtree4nodeEE10deallocateEPS1_m:
.LFB3289:
	.cfi_startproc
	pushq	%rbp
	.cfi_def_cfa_offset 16
	.cfi_offset 6, -16
	movq	%rsp, %rbp
	.cfi_def_cfa_register 6
	subq	$32, %rsp
	movq	%rdi, -8(%rbp)
	movq	%rsi, -16(%rbp)
	movq	%rdx, -24(%rbp)
	movq	-24(%rbp), %rdx
	movq	%rdx, %rax
	addq	%rax, %rax
	addq	%rdx, %rax
	salq	$3, %rax
	movq	%rax, %rdx
	movq	-16(%rbp), %rax
	movq	%rdx, %rsi
	movq	%rax, %rdi
	call	_ZdlPvm@PLT
	leave
	.cfi_def_cfa 7, 8
	ret
	.cfi_endproc
.LFE3289:
	.size	_ZNSt15__new_allocatorIN7segtree4nodeEE10deallocateEPS1_m, .-_ZNSt15__new_allocatorIN7segtree4nodeEE10deallocateEPS1_m
	.section	.text._ZNSt12_Destroy_auxILb1EE9__destroyIPN7segtree4nodeEEEvT_S5_,"axG",@progbits,_ZNSt12_Destroy_auxILb1EE9__destroyIPN7segtree4nodeEEEvT_S5_,comdat
	.weak	_ZNSt12_Destroy_auxILb1EE9__destroyIPN7segtree4nodeEEEvT_S5_
	.type	_ZNSt12_Destroy_auxILb1EE9__destroyIPN7segtree4nodeEEEvT_S5_, @function
_ZNSt12_Destroy_auxILb1EE9__destroyIPN7segtree4nodeEEEvT_S5_:
.LFB3290:
	.cfi_startproc
	pushq	%rbp
	.cfi_def_cfa_offset 16
	.cfi_offset 6, -16
	movq	%rsp, %rbp
	.cfi_def_cfa_register 6
	movq	%rdi, -8(%rbp)
	movq	%rsi, -16(%rbp)
	nop
	popq	%rbp
	.cfi_def_cfa 7, 8
	ret
	.cfi_endproc
.LFE3290:
	.size	_ZNSt12_Destroy_auxILb1EE9__destroyIPN7segtree4nodeEEEvT_S5_, .-_ZNSt12_Destroy_auxILb1EE9__destroyIPN7segtree4nodeEEEvT_S5_
	.section	.text._ZSt3minImERKT_S2_S2_,"axG",@progbits,_ZSt3minImERKT_S2_S2_,comdat
	.weak	_ZSt3minImERKT_S2_S2_
	.type	_ZSt3minImERKT_S2_S2_, @function
_ZSt3minImERKT_S2_S2_:
.LFB3292:
	.cfi_startproc
	pushq	%rbp
	.cfi_def_cfa_offset 16
	.cfi_offset 6, -16
	movq	%rsp, %rbp
	.cfi_def_cfa_register 6
	movq	%rdi, -8(%rbp)
	movq	%rsi, -16(%rbp)
	movq	-16(%rbp), %rax
	movq	(%rax), %rdx
	movq	-8(%rbp), %rax
	movq	(%rax), %rax
	cmpq	%rax, %rdx
	jnb	.L280
	movq	-16(%rbp), %rax
	jmp	.L281
.L280:
	movq	-8(%rbp), %rax
.L281:
	popq	%rbp
	.cfi_def_cfa 7, 8
	ret
	.cfi_endproc
.LFE3292:
	.size	_ZSt3minImERKT_S2_S2_, .-_ZSt3minImERKT_S2_S2_
	.section	.text._ZNSt15__new_allocatorIN7segtree4nodeEE8allocateEmPKv,"axG",@progbits,_ZNSt15__new_allocatorIN7segtree4nodeEE8allocateEmPKv,comdat
	.align 2
	.weak	_ZNSt15__new_allocatorIN7segtree4nodeEE8allocateEmPKv
	.type	_ZNSt15__new_allocatorIN7segtree4nodeEE8allocateEmPKv, @function
_ZNSt15__new_allocatorIN7segtree4nodeEE8allocateEmPKv:
.LFB3293:
	.cfi_startproc
	pushq	%rbp
	.cfi_def_cfa_offset 16
	.cfi_offset 6, -16
	movq	%rsp, %rbp
	.cfi_def_cfa_register 6
	subq	$48, %rsp
	movq	%rdi, -24(%rbp)
	movq	%rsi, -32(%rbp)
	movq	%rdx, -40(%rbp)
	movq	-24(%rbp), %rax
	movq	%rax, -8(%rbp)
	movabsq	$384307168202282325, %rax
	cmpq	-32(%rbp), %rax
	setb	%al
	movzbl	%al, %eax
	testq	%rax, %rax
	setne	%al
	testb	%al, %al
	je	.L284
	movabsq	$768614336404564650, %rax
	cmpq	-32(%rbp), %rax
	jnb	.L285
	call	_ZSt28__throw_bad_array_new_lengthv@PLT
.L285:
	call	_ZSt17__throw_bad_allocv@PLT
.L284:
	movq	-32(%rbp), %rdx
	movq	%rdx, %rax
	addq	%rax, %rax
	addq	%rdx, %rax
	salq	$3, %rax
	movq	%rax, %rdi
	call	_Znwm@PLT
	nop
	leave
	.cfi_def_cfa 7, 8
	ret
	.cfi_endproc
.LFE3293:
	.size	_ZNSt15__new_allocatorIN7segtree4nodeEE8allocateEmPKv, .-_ZNSt15__new_allocatorIN7segtree4nodeEE8allocateEmPKv
	.section	.text._ZSt12__niter_baseIPN7segtree4nodeEET_S3_,"axG",@progbits,_ZSt12__niter_baseIPN7segtree4nodeEET_S3_,comdat
	.weak	_ZSt12__niter_baseIPN7segtree4nodeEET_S3_
	.type	_ZSt12__niter_baseIPN7segtree4nodeEET_S3_, @function
_ZSt12__niter_baseIPN7segtree4nodeEET_S3_:
.LFB3294:
	.cfi_startproc
	pushq	%rbp
	.cfi_def_cfa_offset 16
	.cfi_offset 6, -16
	movq	%rsp, %rbp
	.cfi_def_cfa_register 6
	movq	%rdi, -8(%rbp)
	movq	-8(%rbp), %rax
	popq	%rbp
	.cfi_def_cfa 7, 8
	ret
	.cfi_endproc
.LFE3294:
	.size	_ZSt12__niter_baseIPN7segtree4nodeEET_S3_, .-_ZSt12__niter_baseIPN7segtree4nodeEET_S3_
	.section	.text._ZSt14__relocate_a_1IPN7segtree4nodeES2_SaIS1_EET0_T_S5_S4_RT1_,"axG",@progbits,_ZSt14__relocate_a_1IPN7segtree4nodeES2_SaIS1_EET0_T_S5_S4_RT1_,comdat
	.weak	_ZSt14__relocate_a_1IPN7segtree4nodeES2_SaIS1_EET0_T_S5_S4_RT1_
	.type	_ZSt14__relocate_a_1IPN7segtree4nodeES2_SaIS1_EET0_T_S5_S4_RT1_, @function
_ZSt14__relocate_a_1IPN7segtree4nodeES2_SaIS1_EET0_T_S5_S4_RT1_:
.LFB3295:
	.cfi_startproc
	pushq	%rbp
	.cfi_def_cfa_offset 16
	.cfi_offset 6, -16
	movq	%rsp, %rbp
	.cfi_def_cfa_register 6
	pushq	%rbx
	subq	$56, %rsp
	.cfi_offset 3, -24
	movq	%rdi, -40(%rbp)
	movq	%rsi, -48(%rbp)
	movq	%rdx, -56(%rbp)
	movq	%rcx, -64(%rbp)
	movq	-56(%rbp), %rax
	movq	%rax, -24(%rbp)
	jmp	.L290
.L291:
	movq	-40(%rbp), %rax
	movq	%rax, %rdi
	call	_ZSt11__addressofIN7segtree4nodeEEPT_RS2_
	movq	%rax, %rbx
	movq	-24(%rbp), %rax
	movq	%rax, %rdi
	call	_ZSt11__addressofIN7segtree4nodeEEPT_RS2_
	movq	%rax, %rcx
	movq	-64(%rbp), %rax
	movq	%rax, %rdx
	movq	%rbx, %rsi
	movq	%rcx, %rdi
	call	_ZSt19__relocate_object_aIN7segtree4nodeES1_SaIS1_EEvPT_PT0_RT1_
	addq	$24, -40(%rbp)
	addq	$24, -24(%rbp)
.L290:
	movq	-40(%rbp), %rax
	cmpq	-48(%rbp), %rax
	jne	.L291
	movq	-24(%rbp), %rax
	movq	-8(%rbp), %rbx
	leave
	.cfi_def_cfa 7, 8
	ret
	.cfi_endproc
.LFE3295:
	.size	_ZSt14__relocate_a_1IPN7segtree4nodeES2_SaIS1_EET0_T_S5_S4_RT1_, .-_ZSt14__relocate_a_1IPN7segtree4nodeES2_SaIS1_EET0_T_S5_S4_RT1_
	.section	.text._ZNSt11_Deque_baseIiSaIiEE16_Deque_impl_dataC2Ev,"axG",@progbits,_ZNSt11_Deque_baseIiSaIiEE16_Deque_impl_dataC5Ev,comdat
	.align 2
	.weak	_ZNSt11_Deque_baseIiSaIiEE16_Deque_impl_dataC2Ev
	.type	_ZNSt11_Deque_baseIiSaIiEE16_Deque_impl_dataC2Ev, @function
_ZNSt11_Deque_baseIiSaIiEE16_Deque_impl_dataC2Ev:
.LFB3297:
	.cfi_startproc
	pushq	%rbp
	.cfi_def_cfa_offset 16
	.cfi_offset 6, -16
	movq	%rsp, %rbp
	.cfi_def_cfa_register 6
	subq	$16, %rsp
	movq	%rdi, -8(%rbp)
	movq	-8(%rbp), %rax
	movq	$0, (%rax)
	movq	-8(%rbp), %rax
	movq	$0, 8(%rax)
	movq	-8(%rbp), %rax
	addq	$16, %rax
	movq	%rax, %rdi
	call	_ZNSt15_Deque_iteratorIiRiPiEC1Ev
	movq	-8(%rbp), %rax
	addq	$48, %rax
	movq	%rax, %rdi
	call	_ZNSt15_Deque_iteratorIiRiPiEC1Ev
	nop
	leave
	.cfi_def_cfa 7, 8
	ret
	.cfi_endproc
.LFE3297:
	.size	_ZNSt11_Deque_baseIiSaIiEE16_Deque_impl_dataC2Ev, .-_ZNSt11_Deque_baseIiSaIiEE16_Deque_impl_dataC2Ev
	.weak	_ZNSt11_Deque_baseIiSaIiEE16_Deque_impl_dataC1Ev
	.set	_ZNSt11_Deque_baseIiSaIiEE16_Deque_impl_dataC1Ev,_ZNSt11_Deque_baseIiSaIiEE16_Deque_impl_dataC2Ev
	.section	.text._ZNSt11_Deque_baseIiSaIiEE15_M_allocate_mapEm,"axG",@progbits,_ZNSt11_Deque_baseIiSaIiEE15_M_allocate_mapEm,comdat
	.align 2
	.weak	_ZNSt11_Deque_baseIiSaIiEE15_M_allocate_mapEm
	.type	_ZNSt11_Deque_baseIiSaIiEE15_M_allocate_mapEm, @function
_ZNSt11_Deque_baseIiSaIiEE15_M_allocate_mapEm:
.LFB3299:
	.cfi_startproc
	.cfi_personality 0x9b,DW.ref.__gxx_personality_v0
	.cfi_lsda 0x1b,.LLSDA3299
	pushq	%rbp
	.cfi_def_cfa_offset 16
	.cfi_offset 6, -16
	movq	%rsp, %rbp
	.cfi_def_cfa_register 6
	pushq	%rbx
	subq	$56, %rsp
	.cfi_offset 3, -24
	movq	%rdi, -56(%rbp)
	movq	%rsi, -64(%rbp)
	movq	%fs:40, %rax
	movq	%rax, -24(%rbp)
	xorl	%eax, %eax
	leaq	-33(%rbp), %rax
	movq	-56(%rbp), %rdx
	movq	%rdx, %rsi
	movq	%rax, %rdi
	call	_ZNKSt11_Deque_baseIiSaIiEE20_M_get_map_allocatorEv
	movq	-64(%rbp), %rax
	movq	%rax, -32(%rbp)
	movq	-32(%rbp), %rcx
	leaq	-33(%rbp), %rax
	movl	$0, %edx
	movq	%rcx, %rsi
	movq	%rax, %rdi
.LEHB25:
	call	_ZNSt15__new_allocatorIPiE8allocateEmPKv
.LEHE25:
	movq	%rax, %rbx
	nop
	nop
	leaq	-33(%rbp), %rax
	movq	%rax, %rdi
	call	_ZNSt15__new_allocatorIPiED2Ev
	nop
	movq	%rbx, %rax
	movq	-24(%rbp), %rdx
	subq	%fs:40, %rdx
	je	.L299
	jmp	.L301
.L300:
	movq	%rax, %rbx
	leaq	-33(%rbp), %rax
	movq	%rax, %rdi
	call	_ZNSt15__new_allocatorIPiED2Ev
	nop
	movq	%rbx, %rax
	movq	-24(%rbp), %rdx
	subq	%fs:40, %rdx
	je	.L298
	call	__stack_chk_fail@PLT
.L298:
	movq	%rax, %rdi
.LEHB26:
	call	_Unwind_Resume@PLT
.LEHE26:
.L301:
	call	__stack_chk_fail@PLT
.L299:
	movq	-8(%rbp), %rbx
	leave
	.cfi_def_cfa 7, 8
	ret
	.cfi_endproc
.LFE3299:
	.section	.gcc_except_table
.LLSDA3299:
	.byte	0xff
	.byte	0xff
	.byte	0x1
	.uleb128 .LLSDACSE3299-.LLSDACSB3299
.LLSDACSB3299:
	.uleb128 .LEHB25-.LFB3299
	.uleb128 .LEHE25-.LEHB25
	.uleb128 .L300-.LFB3299
	.uleb128 0
	.uleb128 .LEHB26-.LFB3299
	.uleb128 .LEHE26-.LEHB26
	.uleb128 0
	.uleb128 0
.LLSDACSE3299:
	.section	.text._ZNSt11_Deque_baseIiSaIiEE15_M_allocate_mapEm,"axG",@progbits,_ZNSt11_Deque_baseIiSaIiEE15_M_allocate_mapEm,comdat
	.size	_ZNSt11_Deque_baseIiSaIiEE15_M_allocate_mapEm, .-_ZNSt11_Deque_baseIiSaIiEE15_M_allocate_mapEm
	.section	.text._ZNSt11_Deque_baseIiSaIiEE15_M_create_nodesEPPiS3_,"axG",@progbits,_ZNSt11_Deque_baseIiSaIiEE15_M_create_nodesEPPiS3_,comdat
	.align 2
	.weak	_ZNSt11_Deque_baseIiSaIiEE15_M_create_nodesEPPiS3_
	.type	_ZNSt11_Deque_baseIiSaIiEE15_M_create_nodesEPPiS3_, @function
_ZNSt11_Deque_baseIiSaIiEE15_M_create_nodesEPPiS3_:
.LFB3300:
	.cfi_startproc
	.cfi_personality 0x9b,DW.ref.__gxx_personality_v0
	.cfi_lsda 0x1b,.LLSDA3300
	pushq	%rbp
	.cfi_def_cfa_offset 16
	.cfi_offset 6, -16
	movq	%rsp, %rbp
	.cfi_def_cfa_register 6
	pushq	%rbx
	subq	$56, %rsp
	.cfi_offset 3, -24
	movq	%rdi, -40(%rbp)
	movq	%rsi, -48(%rbp)
	movq	%rdx, -56(%rbp)
	movq	-48(%rbp), %rax
	movq	%rax, -24(%rbp)
	jmp	.L303
.L304:
	movq	-40(%rbp), %rax
	movq	%rax, %rdi
.LEHB27:
	call	_ZNSt11_Deque_baseIiSaIiEE16_M_allocate_nodeEv
.LEHE27:
	movq	-24(%rbp), %rdx
	movq	%rax, (%rdx)
	addq	$8, -24(%rbp)
.L303:
	movq	-24(%rbp), %rax
	cmpq	-56(%rbp), %rax
	jb	.L304
	jmp	.L309
.L307:
	movq	%rax, %rdi
	call	__cxa_begin_catch@PLT
	movq	-24(%rbp), %rdx
	movq	-48(%rbp), %rcx
	movq	-40(%rbp), %rax
	movq	%rcx, %rsi
	movq	%rax, %rdi
	call	_ZNSt11_Deque_baseIiSaIiEE16_M_destroy_nodesEPPiS3_
.LEHB28:
	call	__cxa_rethrow@PLT
.LEHE28:
.L308:
	movq	%rax, %rbx
	call	__cxa_end_catch@PLT
	movq	%rbx, %rax
	movq	%rax, %rdi
.LEHB29:
	call	_Unwind_Resume@PLT
.LEHE29:
.L309:
	movq	-8(%rbp), %rbx
	leave
	.cfi_def_cfa 7, 8
	ret
	.cfi_endproc
.LFE3300:
	.section	.gcc_except_table
	.align 4
.LLSDA3300:
	.byte	0xff
	.byte	0x9b
	.uleb128 .LLSDATT3300-.LLSDATTD3300
.LLSDATTD3300:
	.byte	0x1
	.uleb128 .LLSDACSE3300-.LLSDACSB3300
.LLSDACSB3300:
	.uleb128 .LEHB27-.LFB3300
	.uleb128 .LEHE27-.LEHB27
	.uleb128 .L307-.LFB3300
	.uleb128 0x1
	.uleb128 .LEHB28-.LFB3300
	.uleb128 .LEHE28-.LEHB28
	.uleb128 .L308-.LFB3300
	.uleb128 0
	.uleb128 .LEHB29-.LFB3300
	.uleb128 .LEHE29-.LEHB29
	.uleb128 0
	.uleb128 0
.LLSDACSE3300:
	.byte	0x1
	.byte	0
	.align 4
	.long	0

.LLSDATT3300:
	.section	.text._ZNSt11_Deque_baseIiSaIiEE15_M_create_nodesEPPiS3_,"axG",@progbits,_ZNSt11_Deque_baseIiSaIiEE15_M_create_nodesEPPiS3_,comdat
	.size	_ZNSt11_Deque_baseIiSaIiEE15_M_create_nodesEPPiS3_, .-_ZNSt11_Deque_baseIiSaIiEE15_M_create_nodesEPPiS3_
	.section	.text._ZNSt15_Deque_iteratorIiRiPiE11_M_set_nodeEPS1_,"axG",@progbits,_ZNSt15_Deque_iteratorIiRiPiE11_M_set_nodeEPS1_,comdat
	.align 2
	.weak	_ZNSt15_Deque_iteratorIiRiPiE11_M_set_nodeEPS1_
	.type	_ZNSt15_Deque_iteratorIiRiPiE11_M_set_nodeEPS1_, @function
_ZNSt15_Deque_iteratorIiRiPiE11_M_set_nodeEPS1_:
.LFB3301:
	.cfi_startproc
	pushq	%rbp
	.cfi_def_cfa_offset 16
	.cfi_offset 6, -16
	movq	%rsp, %rbp
	.cfi_def_cfa_register 6
	pushq	%rbx
	subq	$24, %rsp
	.cfi_offset 3, -24
	movq	%rdi, -24(%rbp)
	movq	%rsi, -32(%rbp)
	movq	-24(%rbp), %rax
	movq	-32(%rbp), %rdx
	movq	%rdx, 24(%rax)
	movq	-32(%rbp), %rax
	movq	(%rax), %rdx
	movq	-24(%rbp), %rax
	movq	%rdx, 8(%rax)
	movq	-24(%rbp), %rax
	movq	8(%rax), %rbx
	call	_ZNSt15_Deque_iteratorIiRiPiE14_S_buffer_sizeEv
	salq	$2, %rax
	leaq	(%rbx,%rax), %rdx
	movq	-24(%rbp), %rax
	movq	%rdx, 16(%rax)
	nop
	movq	-8(%rbp), %rbx
	leave
	.cfi_def_cfa 7, 8
	ret
	.cfi_endproc
.LFE3301:
	.size	_ZNSt15_Deque_iteratorIiRiPiE11_M_set_nodeEPS1_, .-_ZNSt15_Deque_iteratorIiRiPiE11_M_set_nodeEPS1_
	.section	.text._ZNSt11_Deque_baseIiSaIiEE18_M_deallocate_nodeEPi,"axG",@progbits,_ZNSt11_Deque_baseIiSaIiEE18_M_deallocate_nodeEPi,comdat
	.align 2
	.weak	_ZNSt11_Deque_baseIiSaIiEE18_M_deallocate_nodeEPi
	.type	_ZNSt11_Deque_baseIiSaIiEE18_M_deallocate_nodeEPi, @function
_ZNSt11_Deque_baseIiSaIiEE18_M_deallocate_nodeEPi:
.LFB3302:
	.cfi_startproc
	pushq	%rbp
	.cfi_def_cfa_offset 16
	.cfi_offset 6, -16
	movq	%rsp, %rbp
	.cfi_def_cfa_register 6
	subq	$48, %rsp
	movq	%rdi, -40(%rbp)
	movq	%rsi, -48(%rbp)
	movl	$4, %edi
	call	_ZSt16__deque_buf_sizem
	movq	-40(%rbp), %rdx
	movq	%rdx, -24(%rbp)
	movq	-48(%rbp), %rdx
	movq	%rdx, -16(%rbp)
	movq	%rax, -8(%rbp)
	movq	-8(%rbp), %rdx
	movq	-16(%rbp), %rcx
	movq	-24(%rbp), %rax
	movq	%rcx, %rsi
	movq	%rax, %rdi
	call	_ZNSt15__new_allocatorIiE10deallocateEPim
	nop
	nop
	leave
	.cfi_def_cfa 7, 8
	ret
	.cfi_endproc
.LFE3302:
	.size	_ZNSt11_Deque_baseIiSaIiEE18_M_deallocate_nodeEPi, .-_ZNSt11_Deque_baseIiSaIiEE18_M_deallocate_nodeEPi
	.section	.text._ZNKSt11_Deque_baseIiSaIiEE20_M_get_map_allocatorEv,"axG",@progbits,_ZNKSt11_Deque_baseIiSaIiEE20_M_get_map_allocatorEv,comdat
	.align 2
	.weak	_ZNKSt11_Deque_baseIiSaIiEE20_M_get_map_allocatorEv
	.type	_ZNKSt11_Deque_baseIiSaIiEE20_M_get_map_allocatorEv, @function
_ZNKSt11_Deque_baseIiSaIiEE20_M_get_map_allocatorEv:
.LFB3303:
	.cfi_startproc
	pushq	%rbp
	.cfi_def_cfa_offset 16
	.cfi_offset 6, -16
	movq	%rsp, %rbp
	.cfi_def_cfa_register 6
	subq	$48, %rsp
	movq	%rdi, -40(%rbp)
	movq	%rsi, -48(%rbp)
	movq	-48(%rbp), %rax
	movq	%rax, %rdi
	call	_ZNKSt11_Deque_baseIiSaIiEE19_M_get_Tp_allocatorEv
	movq	-40(%rbp), %rdx
	movq	%rdx, -24(%rbp)
	movq	%rax, -16(%rbp)
	movq	-24(%rbp), %rax
	movq	%rax, -8(%rbp)
	nop
	nop
	nop
	movq	-40(%rbp), %rax
	leave
	.cfi_def_cfa 7, 8
	ret
	.cfi_endproc
.LFE3303:
	.size	_ZNKSt11_Deque_baseIiSaIiEE20_M_get_map_allocatorEv, .-_ZNKSt11_Deque_baseIiSaIiEE20_M_get_map_allocatorEv
	.section	.text._ZSt7forwardIiEOT_RNSt16remove_referenceIS0_E4typeE,"axG",@progbits,_ZSt7forwardIiEOT_RNSt16remove_referenceIS0_E4typeE,comdat
	.weak	_ZSt7forwardIiEOT_RNSt16remove_referenceIS0_E4typeE
	.type	_ZSt7forwardIiEOT_RNSt16remove_referenceIS0_E4typeE, @function
_ZSt7forwardIiEOT_RNSt16remove_referenceIS0_E4typeE:
.LFB3309:
	.cfi_startproc
	pushq	%rbp
	.cfi_def_cfa_offset 16
	.cfi_offset 6, -16
	movq	%rsp, %rbp
	.cfi_def_cfa_register 6
	movq	%rdi, -8(%rbp)
	movq	-8(%rbp), %rax
	popq	%rbp
	.cfi_def_cfa 7, 8
	ret
	.cfi_endproc
.LFE3309:
	.size	_ZSt7forwardIiEOT_RNSt16remove_referenceIS0_E4typeE, .-_ZSt7forwardIiEOT_RNSt16remove_referenceIS0_E4typeE
	.section	.text._ZNSt5dequeIiSaIiEE16_M_push_back_auxIJiEEEvDpOT_,"axG",@progbits,_ZNSt5dequeIiSaIiEE16_M_push_back_auxIJiEEEvDpOT_,comdat
	.align 2
	.weak	_ZNSt5dequeIiSaIiEE16_M_push_back_auxIJiEEEvDpOT_
	.type	_ZNSt5dequeIiSaIiEE16_M_push_back_auxIJiEEEvDpOT_, @function
_ZNSt5dequeIiSaIiEE16_M_push_back_auxIJiEEEvDpOT_:
.LFB3311:
	.cfi_startproc
	pushq	%rbp
	.cfi_def_cfa_offset 16
	.cfi_offset 6, -16
	movq	%rsp, %rbp
	.cfi_def_cfa_register 6
	pushq	%rbx
	subq	$72, %rsp
	.cfi_offset 3, -24
	movq	%rdi, -72(%rbp)
	movq	%rsi, -80(%rbp)
	movq	-72(%rbp), %rax
	movq	%rax, %rdi
	call	_ZNKSt5dequeIiSaIiEE4sizeEv
	movq	%rax, %rbx
	movq	-72(%rbp), %rax
	movq	%rax, %rdi
	call	_ZNKSt5dequeIiSaIiEE8max_sizeEv
	cmpq	%rax, %rbx
	sete	%al
	testb	%al, %al
	je	.L317
	leaq	.LC3(%rip), %rax
	movq	%rax, %rdi
	call	_ZSt20__throw_length_errorPKc@PLT
.L317:
	movq	-72(%rbp), %rax
	movl	$1, %esi
	movq	%rax, %rdi
	call	_ZNSt5dequeIiSaIiEE22_M_reserve_map_at_backEm
	movq	-72(%rbp), %rax
	movq	-72(%rbp), %rdx
	movq	72(%rdx), %rdx
	leaq	8(%rdx), %rbx
	movq	%rax, %rdi
	call	_ZNSt11_Deque_baseIiSaIiEE16_M_allocate_nodeEv
	movq	%rax, (%rbx)
	movq	-80(%rbp), %rax
	movq	%rax, %rdi
	call	_ZSt7forwardIiEOT_RNSt16remove_referenceIS0_E4typeE
	movq	-72(%rbp), %rdx
	movq	48(%rdx), %rdx
	movq	-72(%rbp), %rcx
	movq	%rcx, -64(%rbp)
	movq	%rdx, -56(%rbp)
	movq	%rax, -48(%rbp)
	movq	-48(%rbp), %rax
	movq	%rax, %rdi
	call	_ZSt7forwardIiEOT_RNSt16remove_referenceIS0_E4typeE
	movq	-64(%rbp), %rdx
	movq	%rdx, -40(%rbp)
	movq	-56(%rbp), %rdx
	movq	%rdx, -32(%rbp)
	movq	%rax, -24(%rbp)
	movq	-32(%rbp), %rax
	movq	%rax, %rsi
	movl	$4, %edi
	call	_ZnwmPv
	movq	%rax, %rbx
	movq	-24(%rbp), %rax
	movq	%rax, %rdi
	call	_ZSt7forwardIiEOT_RNSt16remove_referenceIS0_E4typeE
	movl	(%rax), %eax
	movl	%eax, (%rbx)
	nop
	nop
	movq	-72(%rbp), %rax
	addq	$48, %rax
	movq	-72(%rbp), %rdx
	movq	72(%rdx), %rdx
	addq	$8, %rdx
	movq	%rdx, %rsi
	movq	%rax, %rdi
	call	_ZNSt15_Deque_iteratorIiRiPiE11_M_set_nodeEPS1_
	movq	-72(%rbp), %rax
	movq	56(%rax), %rdx
	movq	-72(%rbp), %rax
	movq	%rdx, 48(%rax)
	nop
	movq	-8(%rbp), %rbx
	leave
	.cfi_def_cfa 7, 8
	ret
	.cfi_endproc
.LFE3311:
	.size	_ZNSt5dequeIiSaIiEE16_M_push_back_auxIJiEEEvDpOT_, .-_ZNSt5dequeIiSaIiEE16_M_push_back_auxIJiEEEvDpOT_
	.section	.text._ZNSt5dequeIiSaIiEE4backEv,"axG",@progbits,_ZNSt5dequeIiSaIiEE4backEv,comdat
	.align 2
	.weak	_ZNSt5dequeIiSaIiEE4backEv
	.type	_ZNSt5dequeIiSaIiEE4backEv, @function
_ZNSt5dequeIiSaIiEE4backEv:
.LFB3312:
	.cfi_startproc
	pushq	%rbp
	.cfi_def_cfa_offset 16
	.cfi_offset 6, -16
	movq	%rsp, %rbp
	.cfi_def_cfa_register 6
	subq	$64, %rsp
	movq	%rdi, -56(%rbp)
	movq	%fs:40, %rax
	movq	%rax, -8(%rbp)
	xorl	%eax, %eax
	leaq	-48(%rbp), %rax
	movq	-56(%rbp), %rdx
	movq	%rdx, %rsi
	movq	%rax, %rdi
	call	_ZNSt5dequeIiSaIiEE3endEv
	leaq	-48(%rbp), %rax
	movq	%rax, %rdi
	call	_ZNSt15_Deque_iteratorIiRiPiEmmEv
	leaq	-48(%rbp), %rax
	movq	%rax, %rdi
	call	_ZNKSt15_Deque_iteratorIiRiPiEdeEv
	movq	-8(%rbp), %rdx
	subq	%fs:40, %rdx
	je	.L320
	call	__stack_chk_fail@PLT
.L320:
	leave
	.cfi_def_cfa 7, 8
	ret
	.cfi_endproc
.LFE3312:
	.size	_ZNSt5dequeIiSaIiEE4backEv, .-_ZNSt5dequeIiSaIiEE4backEv
	.section	.text._ZSt7forwardIRKiEOT_RNSt16remove_referenceIS2_E4typeE,"axG",@progbits,_ZSt7forwardIRKiEOT_RNSt16remove_referenceIS2_E4typeE,comdat
	.weak	_ZSt7forwardIRKiEOT_RNSt16remove_referenceIS2_E4typeE
	.type	_ZSt7forwardIRKiEOT_RNSt16remove_referenceIS2_E4typeE, @function
_ZSt7forwardIRKiEOT_RNSt16remove_referenceIS2_E4typeE:
.LFB3314:
	.cfi_startproc
	pushq	%rbp
	.cfi_def_cfa_offset 16
	.cfi_offset 6, -16
	movq	%rsp, %rbp
	.cfi_def_cfa_register 6
	movq	%rdi, -8(%rbp)
	movq	-8(%rbp), %rax
	popq	%rbp
	.cfi_def_cfa 7, 8
	ret
	.cfi_endproc
.LFE3314:
	.size	_ZSt7forwardIRKiEOT_RNSt16remove_referenceIS2_E4typeE, .-_ZSt7forwardIRKiEOT_RNSt16remove_referenceIS2_E4typeE
	.section	.text._ZNKSt5dequeIiSaIiEE4sizeEv,"axG",@progbits,_ZNKSt5dequeIiSaIiEE4sizeEv,comdat
	.align 2
	.weak	_ZNKSt5dequeIiSaIiEE4sizeEv
	.type	_ZNKSt5dequeIiSaIiEE4sizeEv, @function
_ZNKSt5dequeIiSaIiEE4sizeEv:
.LFB3316:
	.cfi_startproc
	pushq	%rbp
	.cfi_def_cfa_offset 16
	.cfi_offset 6, -16
	movq	%rsp, %rbp
	.cfi_def_cfa_register 6
	subq	$16, %rsp
	movq	%rdi, -8(%rbp)
	movq	-8(%rbp), %rax
	leaq	16(%rax), %rdx
	movq	-8(%rbp), %rax
	addq	$48, %rax
	movq	%rdx, %rsi
	movq	%rax, %rdi
	call	_ZStmiRKSt15_Deque_iteratorIiRiPiES4_
	leave
	.cfi_def_cfa 7, 8
	ret
	.cfi_endproc
.LFE3316:
	.size	_ZNKSt5dequeIiSaIiEE4sizeEv, .-_ZNKSt5dequeIiSaIiEE4sizeEv
	.section	.text._ZNKSt5dequeIiSaIiEE8max_sizeEv,"axG",@progbits,_ZNKSt5dequeIiSaIiEE8max_sizeEv,comdat
	.align 2
	.weak	_ZNKSt5dequeIiSaIiEE8max_sizeEv
	.type	_ZNKSt5dequeIiSaIiEE8max_sizeEv, @function
_ZNKSt5dequeIiSaIiEE8max_sizeEv:
.LFB3317:
	.cfi_startproc
	pushq	%rbp
	.cfi_def_cfa_offset 16
	.cfi_offset 6, -16
	movq	%rsp, %rbp
	.cfi_def_cfa_register 6
	subq	$16, %rsp
	movq	%rdi, -8(%rbp)
	movq	-8(%rbp), %rax
	movq	%rax, %rdi
	call	_ZNKSt11_Deque_baseIiSaIiEE19_M_get_Tp_allocatorEv
	movq	%rax, %rdi
	call	_ZNSt5dequeIiSaIiEE11_S_max_sizeERKS0_
	leave
	.cfi_def_cfa 7, 8
	ret
	.cfi_endproc
.LFE3317:
	.size	_ZNKSt5dequeIiSaIiEE8max_sizeEv, .-_ZNKSt5dequeIiSaIiEE8max_sizeEv
	.section	.text._ZNSt5dequeIiSaIiEE22_M_reserve_map_at_backEm,"axG",@progbits,_ZNSt5dequeIiSaIiEE22_M_reserve_map_at_backEm,comdat
	.align 2
	.weak	_ZNSt5dequeIiSaIiEE22_M_reserve_map_at_backEm
	.type	_ZNSt5dequeIiSaIiEE22_M_reserve_map_at_backEm, @function
_ZNSt5dequeIiSaIiEE22_M_reserve_map_at_backEm:
.LFB3318:
	.cfi_startproc
	pushq	%rbp
	.cfi_def_cfa_offset 16
	.cfi_offset 6, -16
	movq	%rsp, %rbp
	.cfi_def_cfa_register 6
	subq	$16, %rsp
	movq	%rdi, -8(%rbp)
	movq	%rsi, -16(%rbp)
	movq	-16(%rbp), %rax
	leaq	1(%rax), %rdx
	movq	-8(%rbp), %rax
	movq	8(%rax), %rcx
	movq	-8(%rbp), %rax
	movq	72(%rax), %rsi
	movq	-8(%rbp), %rax
	movq	(%rax), %rax
	subq	%rax, %rsi
	movq	%rsi, %rax
	sarq	$3, %rax
	movq	%rax, %rsi
	movq	%rcx, %rax
	subq	%rsi, %rax
	cmpq	%rdx, %rax
	jnb	.L329
	movq	-16(%rbp), %rcx
	movq	-8(%rbp), %rax
	movl	$0, %edx
	movq	%rcx, %rsi
	movq	%rax, %rdi
	call	_ZNSt5dequeIiSaIiEE17_M_reallocate_mapEmb
.L329:
	nop
	leave
	.cfi_def_cfa 7, 8
	ret
	.cfi_endproc
.LFE3318:
	.size	_ZNSt5dequeIiSaIiEE22_M_reserve_map_at_backEm, .-_ZNSt5dequeIiSaIiEE22_M_reserve_map_at_backEm
	.section	.text._ZNSt11_Deque_baseIiSaIiEE16_M_allocate_nodeEv,"axG",@progbits,_ZNSt11_Deque_baseIiSaIiEE16_M_allocate_nodeEv,comdat
	.align 2
	.weak	_ZNSt11_Deque_baseIiSaIiEE16_M_allocate_nodeEv
	.type	_ZNSt11_Deque_baseIiSaIiEE16_M_allocate_nodeEv, @function
_ZNSt11_Deque_baseIiSaIiEE16_M_allocate_nodeEv:
.LFB3319:
	.cfi_startproc
	pushq	%rbp
	.cfi_def_cfa_offset 16
	.cfi_offset 6, -16
	movq	%rsp, %rbp
	.cfi_def_cfa_register 6
	subq	$32, %rsp
	movq	%rdi, -24(%rbp)
	movl	$4, %edi
	call	_ZSt16__deque_buf_sizem
	movq	-24(%rbp), %rdx
	movq	%rdx, -16(%rbp)
	movq	%rax, -8(%rbp)
	movq	-8(%rbp), %rcx
	movq	-16(%rbp), %rax
	movl	$0, %edx
	movq	%rcx, %rsi
	movq	%rax, %rdi
	call	_ZNSt15__new_allocatorIiE8allocateEmPKv
	nop
	leave
	.cfi_def_cfa 7, 8
	ret
	.cfi_endproc
.LFE3319:
	.size	_ZNSt11_Deque_baseIiSaIiEE16_M_allocate_nodeEv, .-_ZNSt11_Deque_baseIiSaIiEE16_M_allocate_nodeEv
	.section	.text._ZNSt12_Vector_baseIiSaIiEE17_Vector_impl_dataC2Ev,"axG",@progbits,_ZNSt12_Vector_baseIiSaIiEE17_Vector_impl_dataC5Ev,comdat
	.align 2
	.weak	_ZNSt12_Vector_baseIiSaIiEE17_Vector_impl_dataC2Ev
	.type	_ZNSt12_Vector_baseIiSaIiEE17_Vector_impl_dataC2Ev, @function
_ZNSt12_Vector_baseIiSaIiEE17_Vector_impl_dataC2Ev:
.LFB3325:
	.cfi_startproc
	pushq	%rbp
	.cfi_def_cfa_offset 16
	.cfi_offset 6, -16
	movq	%rsp, %rbp
	.cfi_def_cfa_register 6
	movq	%rdi, -8(%rbp)
	movq	-8(%rbp), %rax
	movq	$0, (%rax)
	movq	-8(%rbp), %rax
	movq	$0, 8(%rax)
	movq	-8(%rbp), %rax
	movq	$0, 16(%rax)
	nop
	popq	%rbp
	.cfi_def_cfa 7, 8
	ret
	.cfi_endproc
.LFE3325:
	.size	_ZNSt12_Vector_baseIiSaIiEE17_Vector_impl_dataC2Ev, .-_ZNSt12_Vector_baseIiSaIiEE17_Vector_impl_dataC2Ev
	.weak	_ZNSt12_Vector_baseIiSaIiEE17_Vector_impl_dataC1Ev
	.set	_ZNSt12_Vector_baseIiSaIiEE17_Vector_impl_dataC1Ev,_ZNSt12_Vector_baseIiSaIiEE17_Vector_impl_dataC2Ev
	.section	.text._ZNSt12_Vector_baseIiSaIiEE11_M_allocateEm,"axG",@progbits,_ZNSt12_Vector_baseIiSaIiEE11_M_allocateEm,comdat
	.align 2
	.weak	_ZNSt12_Vector_baseIiSaIiEE11_M_allocateEm
	.type	_ZNSt12_Vector_baseIiSaIiEE11_M_allocateEm, @function
_ZNSt12_Vector_baseIiSaIiEE11_M_allocateEm:
.LFB3327:
	.cfi_startproc
	pushq	%rbp
	.cfi_def_cfa_offset 16
	.cfi_offset 6, -16
	movq	%rsp, %rbp
	.cfi_def_cfa_register 6
	subq	$32, %rsp
	movq	%rdi, -24(%rbp)
	movq	%rsi, -32(%rbp)
	cmpq	$0, -32(%rbp)
	je	.L335
	movq	-24(%rbp), %rax
	movq	%rax, -16(%rbp)
	movq	-32(%rbp), %rax
	movq	%rax, -8(%rbp)
	movq	-8(%rbp), %rcx
	movq	-16(%rbp), %rax
	movl	$0, %edx
	movq	%rcx, %rsi
	movq	%rax, %rdi
	call	_ZNSt15__new_allocatorIiE8allocateEmPKv
	nop
	jmp	.L337
.L335:
	movl	$0, %eax
.L337:
	leave
	.cfi_def_cfa 7, 8
	ret
	.cfi_endproc
.LFE3327:
	.size	_ZNSt12_Vector_baseIiSaIiEE11_M_allocateEm, .-_ZNSt12_Vector_baseIiSaIiEE11_M_allocateEm
	.section	.text._ZSt25__uninitialized_default_nIPimET_S1_T0_,"axG",@progbits,_ZSt25__uninitialized_default_nIPimET_S1_T0_,comdat
	.weak	_ZSt25__uninitialized_default_nIPimET_S1_T0_
	.type	_ZSt25__uninitialized_default_nIPimET_S1_T0_, @function
_ZSt25__uninitialized_default_nIPimET_S1_T0_:
.LFB3329:
	.cfi_startproc
	pushq	%rbp
	.cfi_def_cfa_offset 16
	.cfi_offset 6, -16
	movq	%rsp, %rbp
	.cfi_def_cfa_register 6
	subq	$32, %rsp
	movq	%rdi, -24(%rbp)
	movq	%rsi, -32(%rbp)
	movb	$1, -1(%rbp)
	movq	-32(%rbp), %rdx
	movq	-24(%rbp), %rax
	movq	%rdx, %rsi
	movq	%rax, %rdi
	call	_ZNSt27__uninitialized_default_n_1ILb1EE18__uninit_default_nIPimEET_S3_T0_
	leave
	.cfi_def_cfa 7, 8
	ret
	.cfi_endproc
.LFE3329:
	.size	_ZSt25__uninitialized_default_nIPimET_S1_T0_, .-_ZSt25__uninitialized_default_nIPimET_S1_T0_
	.section	.text._ZNSt12_Destroy_auxILb1EE9__destroyIPiEEvT_S3_,"axG",@progbits,_ZNSt12_Destroy_auxILb1EE9__destroyIPiEEvT_S3_,comdat
	.weak	_ZNSt12_Destroy_auxILb1EE9__destroyIPiEEvT_S3_
	.type	_ZNSt12_Destroy_auxILb1EE9__destroyIPiEEvT_S3_, @function
_ZNSt12_Destroy_auxILb1EE9__destroyIPiEEvT_S3_:
.LFB3330:
	.cfi_startproc
	pushq	%rbp
	.cfi_def_cfa_offset 16
	.cfi_offset 6, -16
	movq	%rsp, %rbp
	.cfi_def_cfa_register 6
	movq	%rdi, -8(%rbp)
	movq	%rsi, -16(%rbp)
	nop
	popq	%rbp
	.cfi_def_cfa 7, 8
	ret
	.cfi_endproc
.LFE3330:
	.size	_ZNSt12_Destroy_auxILb1EE9__destroyIPiEEvT_S3_, .-_ZNSt12_Destroy_auxILb1EE9__destroyIPiEEvT_S3_
	.section	.text._ZNSt20__uninitialized_copyILb1EE13__uninit_copyIN9__gnu_cxx17__normal_iteratorIPKiSt6vectorIiSaIiEEEEPiEET0_T_SC_SB_,"axG",@progbits,_ZNSt20__uninitialized_copyILb1EE13__uninit_copyIN9__gnu_cxx17__normal_iteratorIPKiSt6vectorIiSaIiEEEEPiEET0_T_SC_SB_,comdat
	.weak	_ZNSt20__uninitialized_copyILb1EE13__uninit_copyIN9__gnu_cxx17__normal_iteratorIPKiSt6vectorIiSaIiEEEEPiEET0_T_SC_SB_
	.type	_ZNSt20__uninitialized_copyILb1EE13__uninit_copyIN9__gnu_cxx17__normal_iteratorIPKiSt6vectorIiSaIiEEEEPiEET0_T_SC_SB_, @function
_ZNSt20__uninitialized_copyILb1EE13__uninit_copyIN9__gnu_cxx17__normal_iteratorIPKiSt6vectorIiSaIiEEEEPiEET0_T_SC_SB_:
.LFB3331:
	.cfi_startproc
	pushq	%rbp
	.cfi_def_cfa_offset 16
	.cfi_offset 6, -16
	movq	%rsp, %rbp
	.cfi_def_cfa_register 6
	subq	$32, %rsp
	movq	%rdi, -8(%rbp)
	movq	%rsi, -16(%rbp)
	movq	%rdx, -24(%rbp)
	movq	-24(%rbp), %rdx
	movq	-16(%rbp), %rcx
	movq	-8(%rbp), %rax
	movq	%rcx, %rsi
	movq	%rax, %rdi
	call	_ZSt4copyIN9__gnu_cxx17__normal_iteratorIPKiSt6vectorIiSaIiEEEEPiET0_T_SA_S9_
	leave
	.cfi_def_cfa 7, 8
	ret
	.cfi_endproc
.LFE3331:
	.size	_ZNSt20__uninitialized_copyILb1EE13__uninit_copyIN9__gnu_cxx17__normal_iteratorIPKiSt6vectorIiSaIiEEEEPiEET0_T_SC_SB_, .-_ZNSt20__uninitialized_copyILb1EE13__uninit_copyIN9__gnu_cxx17__normal_iteratorIPKiSt6vectorIiSaIiEEEEPiEET0_T_SC_SB_
	.section	.text._ZSt11__addressofIN7segtree4nodeEEPT_RS2_,"axG",@progbits,_ZSt11__addressofIN7segtree4nodeEEPT_RS2_,comdat
	.weak	_ZSt11__addressofIN7segtree4nodeEEPT_RS2_
	.type	_ZSt11__addressofIN7segtree4nodeEEPT_RS2_, @function
_ZSt11__addressofIN7segtree4nodeEEPT_RS2_:
.LFB3355:
	.cfi_startproc
	pushq	%rbp
	.cfi_def_cfa_offset 16
	.cfi_offset 6, -16
	movq	%rsp, %rbp
	.cfi_def_cfa_register 6
	movq	%rdi, -8(%rbp)
	movq	-8(%rbp), %rax
	popq	%rbp
	.cfi_def_cfa 7, 8
	ret
	.cfi_endproc
.LFE3355:
	.size	_ZSt11__addressofIN7segtree4nodeEEPT_RS2_, .-_ZSt11__addressofIN7segtree4nodeEEPT_RS2_
	.section	.text._ZSt19__relocate_object_aIN7segtree4nodeES1_SaIS1_EEvPT_PT0_RT1_,"axG",@progbits,_ZSt19__relocate_object_aIN7segtree4nodeES1_SaIS1_EEvPT_PT0_RT1_,comdat
	.weak	_ZSt19__relocate_object_aIN7segtree4nodeES1_SaIS1_EEvPT_PT0_RT1_
	.type	_ZSt19__relocate_object_aIN7segtree4nodeES1_SaIS1_EEvPT_PT0_RT1_, @function
_ZSt19__relocate_object_aIN7segtree4nodeES1_SaIS1_EEvPT_PT0_RT1_:
.LFB3356:
	.cfi_startproc
	pushq	%rbp
	.cfi_def_cfa_offset 16
	.cfi_offset 6, -16
	movq	%rsp, %rbp
	.cfi_def_cfa_register 6
	pushq	%rbx
	subq	$120, %rsp
	.cfi_offset 3, -24
	movq	%rdi, -104(%rbp)
	movq	%rsi, -112(%rbp)
	movq	%rdx, -120(%rbp)
	movq	-112(%rbp), %rax
	movq	%rax, %rdi
	call	_ZSt4moveIRN7segtree4nodeEEONSt16remove_referenceIT_E4typeEOS4_
	movq	-120(%rbp), %rdx
	movq	%rdx, -64(%rbp)
	movq	-104(%rbp), %rdx
	movq	%rdx, -56(%rbp)
	movq	%rax, -48(%rbp)
	movq	-48(%rbp), %rax
	movq	%rax, %rdi
	call	_ZSt7forwardIN7segtree4nodeEEOT_RNSt16remove_referenceIS2_E4typeE
	movq	-64(%rbp), %rdx
	movq	%rdx, -40(%rbp)
	movq	-56(%rbp), %rdx
	movq	%rdx, -32(%rbp)
	movq	%rax, -24(%rbp)
	movq	-32(%rbp), %rax
	movq	%rax, %rsi
	movl	$24, %edi
	call	_ZnwmPv
	movq	%rax, %rbx
	movq	-24(%rbp), %rax
	movq	%rax, %rdi
	call	_ZSt7forwardIN7segtree4nodeEEOT_RNSt16remove_referenceIS2_E4typeE
	movq	%rax, %rcx
	movq	(%rcx), %rax
	movq	8(%rcx), %rdx
	movq	%rax, (%rbx)
	movq	%rdx, 8(%rbx)
	movq	16(%rcx), %rax
	movq	%rax, 16(%rbx)
	nop
	nop
	movq	-112(%rbp), %rax
	movq	%rax, %rdi
	call	_ZSt11__addressofIN7segtree4nodeEEPT_RS2_
	movq	-120(%rbp), %rdx
	movq	%rdx, -96(%rbp)
	movq	%rax, -88(%rbp)
	movq	-96(%rbp), %rax
	movq	%rax, -80(%rbp)
	movq	-88(%rbp), %rax
	movq	%rax, -72(%rbp)
	nop
	nop
	nop
	movq	-8(%rbp), %rbx
	leave
	.cfi_def_cfa 7, 8
	ret
	.cfi_endproc
.LFE3356:
	.size	_ZSt19__relocate_object_aIN7segtree4nodeES1_SaIS1_EEvPT_PT0_RT1_, .-_ZSt19__relocate_object_aIN7segtree4nodeES1_SaIS1_EEvPT_PT0_RT1_
	.section	.text._ZNSt15_Deque_iteratorIiRiPiEC2Ev,"axG",@progbits,_ZNSt15_Deque_iteratorIiRiPiEC5Ev,comdat
	.align 2
	.weak	_ZNSt15_Deque_iteratorIiRiPiEC2Ev
	.type	_ZNSt15_Deque_iteratorIiRiPiEC2Ev, @function
_ZNSt15_Deque_iteratorIiRiPiEC2Ev:
.LFB3358:
	.cfi_startproc
	pushq	%rbp
	.cfi_def_cfa_offset 16
	.cfi_offset 6, -16
	movq	%rsp, %rbp
	.cfi_def_cfa_register 6
	movq	%rdi, -8(%rbp)
	movq	-8(%rbp), %rax
	movq	$0, (%rax)
	movq	-8(%rbp), %rax
	movq	$0, 8(%rax)
	movq	-8(%rbp), %rax
	movq	$0, 16(%rax)
	movq	-8(%rbp), %rax
	movq	$0, 24(%rax)
	nop
	popq	%rbp
	.cfi_def_cfa 7, 8
	ret
	.cfi_endproc
.LFE3358:
	.size	_ZNSt15_Deque_iteratorIiRiPiEC2Ev, .-_ZNSt15_Deque_iteratorIiRiPiEC2Ev
	.weak	_ZNSt15_Deque_iteratorIiRiPiEC1Ev
	.set	_ZNSt15_Deque_iteratorIiRiPiEC1Ev,_ZNSt15_Deque_iteratorIiRiPiEC2Ev
	.section	.text._ZNSt15_Deque_iteratorIiRiPiE14_S_buffer_sizeEv,"axG",@progbits,_ZNSt15_Deque_iteratorIiRiPiE14_S_buffer_sizeEv,comdat
	.weak	_ZNSt15_Deque_iteratorIiRiPiE14_S_buffer_sizeEv
	.type	_ZNSt15_Deque_iteratorIiRiPiE14_S_buffer_sizeEv, @function
_ZNSt15_Deque_iteratorIiRiPiE14_S_buffer_sizeEv:
.LFB3361:
	.cfi_startproc
	pushq	%rbp
	.cfi_def_cfa_offset 16
	.cfi_offset 6, -16
	movq	%rsp, %rbp
	.cfi_def_cfa_register 6
	movl	$4, %edi
	call	_ZSt16__deque_buf_sizem
	popq	%rbp
	.cfi_def_cfa 7, 8
	ret
	.cfi_endproc
.LFE3361:
	.size	_ZNSt15_Deque_iteratorIiRiPiE14_S_buffer_sizeEv, .-_ZNSt15_Deque_iteratorIiRiPiE14_S_buffer_sizeEv
	.section	.text._ZNKSt11_Deque_baseIiSaIiEE19_M_get_Tp_allocatorEv,"axG",@progbits,_ZNKSt11_Deque_baseIiSaIiEE19_M_get_Tp_allocatorEv,comdat
	.align 2
	.weak	_ZNKSt11_Deque_baseIiSaIiEE19_M_get_Tp_allocatorEv
	.type	_ZNKSt11_Deque_baseIiSaIiEE19_M_get_Tp_allocatorEv, @function
_ZNKSt11_Deque_baseIiSaIiEE19_M_get_Tp_allocatorEv:
.LFB3362:
	.cfi_startproc
	pushq	%rbp
	.cfi_def_cfa_offset 16
	.cfi_offset 6, -16
	movq	%rsp, %rbp
	.cfi_def_cfa_register 6
	movq	%rdi, -8(%rbp)
	movq	-8(%rbp), %rax
	popq	%rbp
	.cfi_def_cfa 7, 8
	ret
	.cfi_endproc
.LFE3362:
	.size	_ZNKSt11_Deque_baseIiSaIiEE19_M_get_Tp_allocatorEv, .-_ZNKSt11_Deque_baseIiSaIiEE19_M_get_Tp_allocatorEv
	.section	.text._ZNSt15__new_allocatorIPiED2Ev,"axG",@progbits,_ZNSt15__new_allocatorIPiED5Ev,comdat
	.align 2
	.weak	_ZNSt15__new_allocatorIPiED2Ev
	.type	_ZNSt15__new_allocatorIPiED2Ev, @function
_ZNSt15__new_allocatorIPiED2Ev:
.LFB3367:
	.cfi_startproc
	pushq	%rbp
	.cfi_def_cfa_offset 16
	.cfi_offset 6, -16
	movq	%rsp, %rbp
	.cfi_def_cfa_register 6
	movq	%rdi, -8(%rbp)
	nop
	popq	%rbp
	.cfi_def_cfa 7, 8
	ret
	.cfi_endproc
.LFE3367:
	.size	_ZNSt15__new_allocatorIPiED2Ev, .-_ZNSt15__new_allocatorIPiED2Ev
	.weak	_ZNSt15__new_allocatorIPiED1Ev
	.set	_ZNSt15__new_allocatorIPiED1Ev,_ZNSt15__new_allocatorIPiED2Ev
	.section	.text._ZNSt15__new_allocatorIPiE10deallocateEPS0_m,"axG",@progbits,_ZNSt15__new_allocatorIPiE10deallocateEPS0_m,comdat
	.align 2
	.weak	_ZNSt15__new_allocatorIPiE10deallocateEPS0_m
	.type	_ZNSt15__new_allocatorIPiE10deallocateEPS0_m, @function
_ZNSt15__new_allocatorIPiE10deallocateEPS0_m:
.LFB3369:
	.cfi_startproc
	pushq	%rbp
	.cfi_def_cfa_offset 16
	.cfi_offset 6, -16
	movq	%rsp, %rbp
	.cfi_def_cfa_register 6
	subq	$32, %rsp
	movq	%rdi, -8(%rbp)
	movq	%rsi, -16(%rbp)
	movq	%rdx, -24(%rbp)
	movq	-24(%rbp), %rax
	leaq	0(,%rax,8), %rdx
	movq	-16(%rbp), %rax
	movq	%rdx, %rsi
	movq	%rax, %rdi
	call	_ZdlPvm@PLT
	leave
	.cfi_def_cfa 7, 8
	ret
	.cfi_endproc
.LFE3369:
	.size	_ZNSt15__new_allocatorIPiE10deallocateEPS0_m, .-_ZNSt15__new_allocatorIPiE10deallocateEPS0_m
	.section	.text._ZNSt15_Deque_iteratorIiRiPiEmmEv,"axG",@progbits,_ZNSt15_Deque_iteratorIiRiPiEmmEv,comdat
	.align 2
	.weak	_ZNSt15_Deque_iteratorIiRiPiEmmEv
	.type	_ZNSt15_Deque_iteratorIiRiPiEmmEv, @function
_ZNSt15_Deque_iteratorIiRiPiEmmEv:
.LFB3371:
	.cfi_startproc
	pushq	%rbp
	.cfi_def_cfa_offset 16
	.cfi_offset 6, -16
	movq	%rsp, %rbp
	.cfi_def_cfa_register 6
	subq	$16, %rsp
	movq	%rdi, -8(%rbp)
	movq	-8(%rbp), %rax
	movq	(%rax), %rdx
	movq	-8(%rbp), %rax
	movq	8(%rax), %rax
	cmpq	%rax, %rdx
	jne	.L356
	movq	-8(%rbp), %rax
	movq	24(%rax), %rax
	leaq	-8(%rax), %rdx
	movq	-8(%rbp), %rax
	movq	%rdx, %rsi
	movq	%rax, %rdi
	call	_ZNSt15_Deque_iteratorIiRiPiE11_M_set_nodeEPS1_
	movq	-8(%rbp), %rax
	movq	16(%rax), %rdx
	movq	-8(%rbp), %rax
	movq	%rdx, (%rax)
.L356:
	movq	-8(%rbp), %rax
	movq	(%rax), %rax
	leaq	-4(%rax), %rdx
	movq	-8(%rbp), %rax
	movq	%rdx, (%rax)
	movq	-8(%rbp), %rax
	leave
	.cfi_def_cfa 7, 8
	ret
	.cfi_endproc
.LFE3371:
	.size	_ZNSt15_Deque_iteratorIiRiPiEmmEv, .-_ZNSt15_Deque_iteratorIiRiPiEmmEv
	.section	.text._ZStmiRKSt15_Deque_iteratorIiRiPiES4_,"axG",@progbits,_ZStmiRKSt15_Deque_iteratorIiRiPiES4_,comdat
	.weak	_ZStmiRKSt15_Deque_iteratorIiRiPiES4_
	.type	_ZStmiRKSt15_Deque_iteratorIiRiPiES4_, @function
_ZStmiRKSt15_Deque_iteratorIiRiPiES4_:
.LFB3372:
	.cfi_startproc
	pushq	%rbp
	.cfi_def_cfa_offset 16
	.cfi_offset 6, -16
	movq	%rsp, %rbp
	.cfi_def_cfa_register 6
	subq	$16, %rsp
	movq	%rdi, -8(%rbp)
	movq	%rsi, -16(%rbp)
	call	_ZNSt15_Deque_iteratorIiRiPiE14_S_buffer_sizeEv
	movq	%rax, %rcx
	movq	-8(%rbp), %rax
	movq	24(%rax), %rdx
	movq	-16(%rbp), %rax
	movq	24(%rax), %rax
	subq	%rax, %rdx
	movq	%rdx, %rax
	sarq	$3, %rax
	movq	%rax, %rdx
	movq	-8(%rbp), %rax
	movq	24(%rax), %rax
	testq	%rax, %rax
	setne	%al
	movzbl	%al, %eax
	subq	%rax, %rdx
	imulq	%rcx, %rdx
	movq	-8(%rbp), %rax
	movq	(%rax), %rcx
	movq	-8(%rbp), %rax
	movq	8(%rax), %rax
	subq	%rax, %rcx
	movq	%rcx, %rax
	sarq	$2, %rax
	leaq	(%rdx,%rax), %rcx
	movq	-16(%rbp), %rax
	movq	16(%rax), %rdx
	movq	-16(%rbp), %rax
	movq	(%rax), %rax
	subq	%rax, %rdx
	movq	%rdx, %rax
	sarq	$2, %rax
	addq	%rcx, %rax
	leave
	.cfi_def_cfa 7, 8
	ret
	.cfi_endproc
.LFE3372:
	.size	_ZStmiRKSt15_Deque_iteratorIiRiPiES4_, .-_ZStmiRKSt15_Deque_iteratorIiRiPiES4_
	.section	.text._ZNSt5dequeIiSaIiEE11_S_max_sizeERKS0_,"axG",@progbits,_ZNSt5dequeIiSaIiEE11_S_max_sizeERKS0_,comdat
	.weak	_ZNSt5dequeIiSaIiEE11_S_max_sizeERKS0_
	.type	_ZNSt5dequeIiSaIiEE11_S_max_sizeERKS0_, @function
_ZNSt5dequeIiSaIiEE11_S_max_sizeERKS0_:
.LFB3373:
	.cfi_startproc
	pushq	%rbp
	.cfi_def_cfa_offset 16
	.cfi_offset 6, -16
	movq	%rsp, %rbp
	.cfi_def_cfa_register 6
	subq	$64, %rsp
	movq	%rdi, -56(%rbp)
	movq	%fs:40, %rax
	movq	%rax, -8(%rbp)
	xorl	%eax, %eax
	movabsq	$9223372036854775807, %rax
	movq	%rax, -48(%rbp)
	movq	-56(%rbp), %rax
	movq	%rax, -32(%rbp)
	movq	-32(%rbp), %rax
	movq	%rax, -24(%rbp)
	movq	-24(%rbp), %rax
	movq	%rax, -16(%rbp)
	movabsq	$2305843009213693951, %rax
	nop
	nop
	movq	%rax, -40(%rbp)
	leaq	-40(%rbp), %rdx
	leaq	-48(%rbp), %rax
	movq	%rdx, %rsi
	movq	%rax, %rdi
	call	_ZSt3minImERKT_S2_S2_
	movq	(%rax), %rax
	movq	-8(%rbp), %rdx
	subq	%fs:40, %rdx
	je	.L365
	call	__stack_chk_fail@PLT
.L365:
	leave
	.cfi_def_cfa 7, 8
	ret
	.cfi_endproc
.LFE3373:
	.size	_ZNSt5dequeIiSaIiEE11_S_max_sizeERKS0_, .-_ZNSt5dequeIiSaIiEE11_S_max_sizeERKS0_
	.section	.text._ZNSt5dequeIiSaIiEE17_M_reallocate_mapEmb,"axG",@progbits,_ZNSt5dequeIiSaIiEE17_M_reallocate_mapEmb,comdat
	.align 2
	.weak	_ZNSt5dequeIiSaIiEE17_M_reallocate_mapEmb
	.type	_ZNSt5dequeIiSaIiEE17_M_reallocate_mapEmb, @function
_ZNSt5dequeIiSaIiEE17_M_reallocate_mapEmb:
.LFB3374:
	.cfi_startproc
	pushq	%rbp
	.cfi_def_cfa_offset 16
	.cfi_offset 6, -16
	movq	%rsp, %rbp
	.cfi_def_cfa_register 6
	pushq	%rbx
	subq	$88, %rsp
	.cfi_offset 3, -24
	movq	%rdi, -72(%rbp)
	movq	%rsi, -80(%rbp)
	movl	%edx, %eax
	movb	%al, -84(%rbp)
	movq	-72(%rbp), %rax
	movq	72(%rax), %rdx
	movq	-72(%rbp), %rax
	movq	40(%rax), %rax
	subq	%rax, %rdx
	movq	%rdx, %rax
	sarq	$3, %rax
	addq	$1, %rax
	movq	%rax, -48(%rbp)
	movq	-80(%rbp), %rdx
	movq	-48(%rbp), %rax
	addq	%rdx, %rax
	movq	%rax, -40(%rbp)
	movq	-72(%rbp), %rax
	movq	8(%rax), %rax
	movq	-40(%rbp), %rdx
	addq	%rdx, %rdx
	cmpq	%rax, %rdx
	jnb	.L367
	movq	-72(%rbp), %rax
	movq	(%rax), %rdx
	movq	-72(%rbp), %rax
	movq	8(%rax), %rax
	subq	-40(%rbp), %rax
	shrq	%rax
	leaq	0(,%rax,8), %rcx
	cmpb	$0, -84(%rbp)
	je	.L368
	movq	-80(%rbp), %rax
	salq	$3, %rax
	jmp	.L369
.L368:
	movl	$0, %eax
.L369:
	addq	%rcx, %rax
	addq	%rdx, %rax
	movq	%rax, -56(%rbp)
	movq	-72(%rbp), %rax
	movq	40(%rax), %rax
	cmpq	%rax, -56(%rbp)
	jnb	.L370
	movq	-72(%rbp), %rax
	movq	72(%rax), %rax
	leaq	8(%rax), %rcx
	movq	-72(%rbp), %rax
	movq	40(%rax), %rax
	movq	-56(%rbp), %rdx
	movq	%rcx, %rsi
	movq	%rax, %rdi
	call	_ZSt4copyIPPiS1_ET0_T_S3_S2_
	jmp	.L371
.L370:
	movq	-48(%rbp), %rax
	leaq	0(,%rax,8), %rdx
	movq	-56(%rbp), %rax
	addq	%rax, %rdx
	movq	-72(%rbp), %rax
	movq	72(%rax), %rax
	leaq	8(%rax), %rcx
	movq	-72(%rbp), %rax
	movq	40(%rax), %rax
	movq	%rcx, %rsi
	movq	%rax, %rdi
	call	_ZSt13copy_backwardIPPiS1_ET0_T_S3_S2_
	jmp	.L371
.L367:
	movq	-72(%rbp), %rax
	movq	8(%rax), %rbx
	movq	-72(%rbp), %rax
	leaq	8(%rax), %rdx
	leaq	-80(%rbp), %rax
	movq	%rax, %rsi
	movq	%rdx, %rdi
	call	_ZSt3maxImERKT_S2_S2_
	movq	(%rax), %rax
	addq	%rbx, %rax
	addq	$2, %rax
	movq	%rax, -32(%rbp)
	movq	-72(%rbp), %rax
	movq	-32(%rbp), %rdx
	movq	%rdx, %rsi
	movq	%rax, %rdi
	call	_ZNSt11_Deque_baseIiSaIiEE15_M_allocate_mapEm
	movq	%rax, -24(%rbp)
	movq	-32(%rbp), %rax
	subq	-40(%rbp), %rax
	shrq	%rax
	leaq	0(,%rax,8), %rdx
	cmpb	$0, -84(%rbp)
	je	.L372
	movq	-80(%rbp), %rax
	salq	$3, %rax
	jmp	.L373
.L372:
	movl	$0, %eax
.L373:
	addq	%rax, %rdx
	movq	-24(%rbp), %rax
	addq	%rdx, %rax
	movq	%rax, -56(%rbp)
	movq	-72(%rbp), %rax
	movq	72(%rax), %rax
	leaq	8(%rax), %rcx
	movq	-72(%rbp), %rax
	movq	40(%rax), %rax
	movq	-56(%rbp), %rdx
	movq	%rcx, %rsi
	movq	%rax, %rdi
	call	_ZSt4copyIPPiS1_ET0_T_S3_S2_
	movq	-72(%rbp), %rax
	movq	-72(%rbp), %rdx
	movq	8(%rdx), %rdx
	movq	-72(%rbp), %rcx
	movq	(%rcx), %rcx
	movq	%rcx, %rsi
	movq	%rax, %rdi
	call	_ZNSt11_Deque_baseIiSaIiEE17_M_deallocate_mapEPPim
	movq	-72(%rbp), %rax
	movq	-24(%rbp), %rdx
	movq	%rdx, (%rax)
	movq	-72(%rbp), %rax
	movq	-32(%rbp), %rdx
	movq	%rdx, 8(%rax)
.L371:
	movq	-72(%rbp), %rax
	leaq	16(%rax), %rdx
	movq	-56(%rbp), %rax
	movq	%rax, %rsi
	movq	%rdx, %rdi
	call	_ZNSt15_Deque_iteratorIiRiPiE11_M_set_nodeEPS1_
	movq	-72(%rbp), %rax
	addq	$48, %rax
	movq	-48(%rbp), %rdx
	salq	$3, %rdx
	leaq	-8(%rdx), %rcx
	movq	-56(%rbp), %rdx
	addq	%rcx, %rdx
	movq	%rdx, %rsi
	movq	%rax, %rdi
	call	_ZNSt15_Deque_iteratorIiRiPiE11_M_set_nodeEPS1_
	nop
	movq	-8(%rbp), %rbx
	leave
	.cfi_def_cfa 7, 8
	ret
	.cfi_endproc
.LFE3374:
	.size	_ZNSt5dequeIiSaIiEE17_M_reallocate_mapEmb, .-_ZNSt5dequeIiSaIiEE17_M_reallocate_mapEmb
	.section	.text._ZNSt15__new_allocatorIiE10deallocateEPim,"axG",@progbits,_ZNSt15__new_allocatorIiE10deallocateEPim,comdat
	.align 2
	.weak	_ZNSt15__new_allocatorIiE10deallocateEPim
	.type	_ZNSt15__new_allocatorIiE10deallocateEPim, @function
_ZNSt15__new_allocatorIiE10deallocateEPim:
.LFB3377:
	.cfi_startproc
	pushq	%rbp
	.cfi_def_cfa_offset 16
	.cfi_offset 6, -16
	movq	%rsp, %rbp
	.cfi_def_cfa_register 6
	subq	$32, %rsp
	movq	%rdi, -8(%rbp)
	movq	%rsi, -16(%rbp)
	movq	%rdx, -24(%rbp)
	movq	-24(%rbp), %rax
	leaq	0(,%rax,4), %rdx
	movq	-16(%rbp), %rax
	movq	%rdx, %rsi
	movq	%rax, %rdi
	call	_ZdlPvm@PLT
	leave
	.cfi_def_cfa 7, 8
	ret
	.cfi_endproc
.LFE3377:
	.size	_ZNSt15__new_allocatorIiE10deallocateEPim, .-_ZNSt15__new_allocatorIiE10deallocateEPim
	.section	.text._ZNSt27__uninitialized_default_n_1ILb1EE18__uninit_default_nIPimEET_S3_T0_,"axG",@progbits,_ZNSt27__uninitialized_default_n_1ILb1EE18__uninit_default_nIPimEET_S3_T0_,comdat
	.weak	_ZNSt27__uninitialized_default_n_1ILb1EE18__uninit_default_nIPimEET_S3_T0_
	.type	_ZNSt27__uninitialized_default_n_1ILb1EE18__uninit_default_nIPimEET_S3_T0_, @function
_ZNSt27__uninitialized_default_n_1ILb1EE18__uninit_default_nIPimEET_S3_T0_:
.LFB3378:
	.cfi_startproc
	pushq	%rbp
	.cfi_def_cfa_offset 16
	.cfi_offset 6, -16
	movq	%rsp, %rbp
	.cfi_def_cfa_register 6
	subq	$32, %rsp
	movq	%rdi, -24(%rbp)
	movq	%rsi, -32(%rbp)
	cmpq	$0, -32(%rbp)
	je	.L377
	movq	-24(%rbp), %rax
	movq	%rax, %rdi
	call	_ZSt11__addressofIiEPT_RS0_
	movq	%rax, -8(%rbp)
	movq	-8(%rbp), %rax
	movq	%rax, %rdi
	call	_ZSt10_ConstructIiJEEvPT_DpOT0_
	addq	$4, -24(%rbp)
	movq	-32(%rbp), %rax
	leaq	-1(%rax), %rcx
	movq	-8(%rbp), %rdx
	movq	-24(%rbp), %rax
	movq	%rcx, %rsi
	movq	%rax, %rdi
	call	_ZSt6fill_nIPimiET_S1_T0_RKT1_
	movq	%rax, -24(%rbp)
.L377:
	movq	-24(%rbp), %rax
	leave
	.cfi_def_cfa 7, 8
	ret
	.cfi_endproc
.LFE3378:
	.size	_ZNSt27__uninitialized_default_n_1ILb1EE18__uninit_default_nIPimEET_S3_T0_, .-_ZNSt27__uninitialized_default_n_1ILb1EE18__uninit_default_nIPimEET_S3_T0_
	.section	.text._ZSt4copyIN9__gnu_cxx17__normal_iteratorIPKiSt6vectorIiSaIiEEEEPiET0_T_SA_S9_,"axG",@progbits,_ZSt4copyIN9__gnu_cxx17__normal_iteratorIPKiSt6vectorIiSaIiEEEEPiET0_T_SA_S9_,comdat
	.weak	_ZSt4copyIN9__gnu_cxx17__normal_iteratorIPKiSt6vectorIiSaIiEEEEPiET0_T_SA_S9_
	.type	_ZSt4copyIN9__gnu_cxx17__normal_iteratorIPKiSt6vectorIiSaIiEEEEPiET0_T_SA_S9_, @function
_ZSt4copyIN9__gnu_cxx17__normal_iteratorIPKiSt6vectorIiSaIiEEEEPiET0_T_SA_S9_:
.LFB3379:
	.cfi_startproc
	pushq	%rbp
	.cfi_def_cfa_offset 16
	.cfi_offset 6, -16
	movq	%rsp, %rbp
	.cfi_def_cfa_register 6
	pushq	%rbx
	subq	$40, %rsp
	.cfi_offset 3, -24
	movq	%rdi, -24(%rbp)
	movq	%rsi, -32(%rbp)
	movq	%rdx, -40(%rbp)
	movq	-32(%rbp), %rax
	movq	%rax, %rdi
	call	_ZSt12__miter_baseIN9__gnu_cxx17__normal_iteratorIPKiSt6vectorIiSaIiEEEEET_S8_
	movq	%rax, %rbx
	movq	-24(%rbp), %rax
	movq	%rax, %rdi
	call	_ZSt12__miter_baseIN9__gnu_cxx17__normal_iteratorIPKiSt6vectorIiSaIiEEEEET_S8_
	movq	%rax, %rcx
	movq	-40(%rbp), %rax
	movq	%rax, %rdx
	movq	%rbx, %rsi
	movq	%rcx, %rdi
	call	_ZSt13__copy_move_aILb0EN9__gnu_cxx17__normal_iteratorIPKiSt6vectorIiSaIiEEEEPiET1_T0_SA_S9_
	movq	-8(%rbp), %rbx
	leave
	.cfi_def_cfa 7, 8
	ret
	.cfi_endproc
.LFE3379:
	.size	_ZSt4copyIN9__gnu_cxx17__normal_iteratorIPKiSt6vectorIiSaIiEEEEPiET0_T_SA_S9_, .-_ZSt4copyIN9__gnu_cxx17__normal_iteratorIPKiSt6vectorIiSaIiEEEEPiET0_T_SA_S9_
	.section	.text._ZSt4moveIRN7segtree4nodeEEONSt16remove_referenceIT_E4typeEOS4_,"axG",@progbits,_ZSt4moveIRN7segtree4nodeEEONSt16remove_referenceIT_E4typeEOS4_,comdat
	.weak	_ZSt4moveIRN7segtree4nodeEEONSt16remove_referenceIT_E4typeEOS4_
	.type	_ZSt4moveIRN7segtree4nodeEEONSt16remove_referenceIT_E4typeEOS4_, @function
_ZSt4moveIRN7segtree4nodeEEONSt16remove_referenceIT_E4typeEOS4_:
.LFB3389:
	.cfi_startproc
	pushq	%rbp
	.cfi_def_cfa_offset 16
	.cfi_offset 6, -16
	movq	%rsp, %rbp
	.cfi_def_cfa_register 6
	movq	%rdi, -8(%rbp)
	movq	-8(%rbp), %rax
	popq	%rbp
	.cfi_def_cfa 7, 8
	ret
	.cfi_endproc
.LFE3389:
	.size	_ZSt4moveIRN7segtree4nodeEEONSt16remove_referenceIT_E4typeEOS4_, .-_ZSt4moveIRN7segtree4nodeEEONSt16remove_referenceIT_E4typeEOS4_
	.section	.text._ZNSt15__new_allocatorIPiE8allocateEmPKv,"axG",@progbits,_ZNSt15__new_allocatorIPiE8allocateEmPKv,comdat
	.align 2
	.weak	_ZNSt15__new_allocatorIPiE8allocateEmPKv
	.type	_ZNSt15__new_allocatorIPiE8allocateEmPKv, @function
_ZNSt15__new_allocatorIPiE8allocateEmPKv:
.LFB3391:
	.cfi_startproc
	pushq	%rbp
	.cfi_def_cfa_offset 16
	.cfi_offset 6, -16
	movq	%rsp, %rbp
	.cfi_def_cfa_register 6
	subq	$48, %rsp
	movq	%rdi, -24(%rbp)
	movq	%rsi, -32(%rbp)
	movq	%rdx, -40(%rbp)
	movq	-24(%rbp), %rax
	movq	%rax, -8(%rbp)
	movabsq	$1152921504606846975, %rax
	cmpq	-32(%rbp), %rax
	setb	%al
	movzbl	%al, %eax
	testq	%rax, %rax
	setne	%al
	testb	%al, %al
	je	.L385
	movabsq	$2305843009213693951, %rax
	cmpq	-32(%rbp), %rax
	jnb	.L386
	call	_ZSt28__throw_bad_array_new_lengthv@PLT
.L386:
	call	_ZSt17__throw_bad_allocv@PLT
.L385:
	movq	-32(%rbp), %rax
	salq	$3, %rax
	movq	%rax, %rdi
	call	_Znwm@PLT
	nop
	leave
	.cfi_def_cfa 7, 8
	ret
	.cfi_endproc
.LFE3391:
	.size	_ZNSt15__new_allocatorIPiE8allocateEmPKv, .-_ZNSt15__new_allocatorIPiE8allocateEmPKv
	.section	.text._ZSt4copyIPPiS1_ET0_T_S3_S2_,"axG",@progbits,_ZSt4copyIPPiS1_ET0_T_S3_S2_,comdat
	.weak	_ZSt4copyIPPiS1_ET0_T_S3_S2_
	.type	_ZSt4copyIPPiS1_ET0_T_S3_S2_, @function
_ZSt4copyIPPiS1_ET0_T_S3_S2_:
.LFB3395:
	.cfi_startproc
	pushq	%rbp
	.cfi_def_cfa_offset 16
	.cfi_offset 6, -16
	movq	%rsp, %rbp
	.cfi_def_cfa_register 6
	pushq	%rbx
	subq	$40, %rsp
	.cfi_offset 3, -24
	movq	%rdi, -24(%rbp)
	movq	%rsi, -32(%rbp)
	movq	%rdx, -40(%rbp)
	movq	-32(%rbp), %rax
	movq	%rax, %rdi
	call	_ZSt12__miter_baseIPPiET_S2_
	movq	%rax, %rbx
	movq	-24(%rbp), %rax
	movq	%rax, %rdi
	call	_ZSt12__miter_baseIPPiET_S2_
	movq	%rax, %rcx
	movq	-40(%rbp), %rax
	movq	%rax, %rdx
	movq	%rbx, %rsi
	movq	%rcx, %rdi
	call	_ZSt13__copy_move_aILb0EPPiS1_ET1_T0_S3_S2_
	movq	-8(%rbp), %rbx
	leave
	.cfi_def_cfa 7, 8
	ret
	.cfi_endproc
.LFE3395:
	.size	_ZSt4copyIPPiS1_ET0_T_S3_S2_, .-_ZSt4copyIPPiS1_ET0_T_S3_S2_
	.section	.text._ZSt13copy_backwardIPPiS1_ET0_T_S3_S2_,"axG",@progbits,_ZSt13copy_backwardIPPiS1_ET0_T_S3_S2_,comdat
	.weak	_ZSt13copy_backwardIPPiS1_ET0_T_S3_S2_
	.type	_ZSt13copy_backwardIPPiS1_ET0_T_S3_S2_, @function
_ZSt13copy_backwardIPPiS1_ET0_T_S3_S2_:
.LFB3396:
	.cfi_startproc
	pushq	%rbp
	.cfi_def_cfa_offset 16
	.cfi_offset 6, -16
	movq	%rsp, %rbp
	.cfi_def_cfa_register 6
	pushq	%rbx
	subq	$40, %rsp
	.cfi_offset 3, -24
	movq	%rdi, -24(%rbp)
	movq	%rsi, -32(%rbp)
	movq	%rdx, -40(%rbp)
	movq	-32(%rbp), %rax
	movq	%rax, %rdi
	call	_ZSt12__miter_baseIPPiET_S2_
	movq	%rax, %rbx
	movq	-24(%rbp), %rax
	movq	%rax, %rdi
	call	_ZSt12__miter_baseIPPiET_S2_
	movq	%rax, %rcx
	movq	-40(%rbp), %rax
	movq	%rax, %rdx
	movq	%rbx, %rsi
	movq	%rcx, %rdi
	call	_ZSt22__copy_move_backward_aILb0EPPiS1_ET1_T0_S3_S2_
	movq	-8(%rbp), %rbx
	leave
	.cfi_def_cfa 7, 8
	ret
	.cfi_endproc
.LFE3396:
	.size	_ZSt13copy_backwardIPPiS1_ET0_T_S3_S2_, .-_ZSt13copy_backwardIPPiS1_ET0_T_S3_S2_
	.section	.text._ZNSt15__new_allocatorIiE8allocateEmPKv,"axG",@progbits,_ZNSt15__new_allocatorIiE8allocateEmPKv,comdat
	.align 2
	.weak	_ZNSt15__new_allocatorIiE8allocateEmPKv
	.type	_ZNSt15__new_allocatorIiE8allocateEmPKv, @function
_ZNSt15__new_allocatorIiE8allocateEmPKv:
.LFB3397:
	.cfi_startproc
	pushq	%rbp
	.cfi_def_cfa_offset 16
	.cfi_offset 6, -16
	movq	%rsp, %rbp
	.cfi_def_cfa_register 6
	subq	$48, %rsp
	movq	%rdi, -24(%rbp)
	movq	%rsi, -32(%rbp)
	movq	%rdx, -40(%rbp)
	movq	-24(%rbp), %rax
	movq	%rax, -8(%rbp)
	movabsq	$2305843009213693951, %rax
	cmpq	-32(%rbp), %rax
	setb	%al
	movzbl	%al, %eax
	testq	%rax, %rax
	setne	%al
	testb	%al, %al
	je	.L394
	movabsq	$4611686018427387903, %rax
	cmpq	-32(%rbp), %rax
	jnb	.L395
	call	_ZSt28__throw_bad_array_new_lengthv@PLT
.L395:
	call	_ZSt17__throw_bad_allocv@PLT
.L394:
	movq	-32(%rbp), %rax
	salq	$2, %rax
	movq	%rax, %rdi
	call	_Znwm@PLT
	nop
	leave
	.cfi_def_cfa 7, 8
	ret
	.cfi_endproc
.LFE3397:
	.size	_ZNSt15__new_allocatorIiE8allocateEmPKv, .-_ZNSt15__new_allocatorIiE8allocateEmPKv
	.section	.text._ZSt11__addressofIiEPT_RS0_,"axG",@progbits,_ZSt11__addressofIiEPT_RS0_,comdat
	.weak	_ZSt11__addressofIiEPT_RS0_
	.type	_ZSt11__addressofIiEPT_RS0_, @function
_ZSt11__addressofIiEPT_RS0_:
.LFB3399:
	.cfi_startproc
	pushq	%rbp
	.cfi_def_cfa_offset 16
	.cfi_offset 6, -16
	movq	%rsp, %rbp
	.cfi_def_cfa_register 6
	movq	%rdi, -8(%rbp)
	movq	-8(%rbp), %rax
	popq	%rbp
	.cfi_def_cfa 7, 8
	ret
	.cfi_endproc
.LFE3399:
	.size	_ZSt11__addressofIiEPT_RS0_, .-_ZSt11__addressofIiEPT_RS0_
	.section	.text._ZSt10_ConstructIiJEEvPT_DpOT0_,"axG",@progbits,_ZSt10_ConstructIiJEEvPT_DpOT0_,comdat
	.weak	_ZSt10_ConstructIiJEEvPT_DpOT0_
	.type	_ZSt10_ConstructIiJEEvPT_DpOT0_, @function
_ZSt10_ConstructIiJEEvPT_DpOT0_:
.LFB3400:
	.cfi_startproc
	pushq	%rbp
	.cfi_def_cfa_offset 16
	.cfi_offset 6, -16
	movq	%rsp, %rbp
	.cfi_def_cfa_register 6
	subq	$16, %rsp
	movq	%rdi, -8(%rbp)
	movq	-8(%rbp), %rax
	movq	%rax, %rsi
	movl	$4, %edi
	call	_ZnwmPv
	movl	$0, (%rax)
	nop
	leave
	.cfi_def_cfa 7, 8
	ret
	.cfi_endproc
.LFE3400:
	.size	_ZSt10_ConstructIiJEEvPT_DpOT0_, .-_ZSt10_ConstructIiJEEvPT_DpOT0_
	.section	.text._ZSt6fill_nIPimiET_S1_T0_RKT1_,"axG",@progbits,_ZSt6fill_nIPimiET_S1_T0_RKT1_,comdat
	.weak	_ZSt6fill_nIPimiET_S1_T0_RKT1_
	.type	_ZSt6fill_nIPimiET_S1_T0_RKT1_, @function
_ZSt6fill_nIPimiET_S1_T0_RKT1_:
.LFB3401:
	.cfi_startproc
	pushq	%rbp
	.cfi_def_cfa_offset 16
	.cfi_offset 6, -16
	movq	%rsp, %rbp
	.cfi_def_cfa_register 6
	subq	$32, %rsp
	movq	%rdi, -8(%rbp)
	movq	%rsi, -16(%rbp)
	movq	%rdx, -24(%rbp)
	nop
	movq	-16(%rbp), %rax
	movq	%rax, %rdi
	call	_ZSt17__size_to_integerm
	movq	%rax, %rcx
	movq	-8(%rbp), %rax
	movq	-24(%rbp), %rdx
	movq	%rcx, %rsi
	movq	%rax, %rdi
	call	_ZSt10__fill_n_aIPimiET_S1_T0_RKT1_St26random_access_iterator_tag
	leave
	.cfi_def_cfa 7, 8
	ret
	.cfi_endproc
.LFE3401:
	.size	_ZSt6fill_nIPimiET_S1_T0_RKT1_, .-_ZSt6fill_nIPimiET_S1_T0_RKT1_
	.section	.text._ZSt12__miter_baseIN9__gnu_cxx17__normal_iteratorIPKiSt6vectorIiSaIiEEEEET_S8_,"axG",@progbits,_ZSt12__miter_baseIN9__gnu_cxx17__normal_iteratorIPKiSt6vectorIiSaIiEEEEET_S8_,comdat
	.weak	_ZSt12__miter_baseIN9__gnu_cxx17__normal_iteratorIPKiSt6vectorIiSaIiEEEEET_S8_
	.type	_ZSt12__miter_baseIN9__gnu_cxx17__normal_iteratorIPKiSt6vectorIiSaIiEEEEET_S8_, @function
_ZSt12__miter_baseIN9__gnu_cxx17__normal_iteratorIPKiSt6vectorIiSaIiEEEEET_S8_:
.LFB3402:
	.cfi_startproc
	pushq	%rbp
	.cfi_def_cfa_offset 16
	.cfi_offset 6, -16
	movq	%rsp, %rbp
	.cfi_def_cfa_register 6
	movq	%rdi, -8(%rbp)
	movq	-8(%rbp), %rax
	popq	%rbp
	.cfi_def_cfa 7, 8
	ret
	.cfi_endproc
.LFE3402:
	.size	_ZSt12__miter_baseIN9__gnu_cxx17__normal_iteratorIPKiSt6vectorIiSaIiEEEEET_S8_, .-_ZSt12__miter_baseIN9__gnu_cxx17__normal_iteratorIPKiSt6vectorIiSaIiEEEEET_S8_
	.section	.text._ZSt13__copy_move_aILb0EN9__gnu_cxx17__normal_iteratorIPKiSt6vectorIiSaIiEEEEPiET1_T0_SA_S9_,"axG",@progbits,_ZSt13__copy_move_aILb0EN9__gnu_cxx17__normal_iteratorIPKiSt6vectorIiSaIiEEEEPiET1_T0_SA_S9_,comdat
	.weak	_ZSt13__copy_move_aILb0EN9__gnu_cxx17__normal_iteratorIPKiSt6vectorIiSaIiEEEEPiET1_T0_SA_S9_
	.type	_ZSt13__copy_move_aILb0EN9__gnu_cxx17__normal_iteratorIPKiSt6vectorIiSaIiEEEEPiET1_T0_SA_S9_, @function
_ZSt13__copy_move_aILb0EN9__gnu_cxx17__normal_iteratorIPKiSt6vectorIiSaIiEEEEPiET1_T0_SA_S9_:
.LFB3403:
	.cfi_startproc
	pushq	%rbp
	.cfi_def_cfa_offset 16
	.cfi_offset 6, -16
	movq	%rsp, %rbp
	.cfi_def_cfa_register 6
	pushq	%r12
	pushq	%rbx
	subq	$32, %rsp
	.cfi_offset 12, -24
	.cfi_offset 3, -32
	movq	%rdi, -24(%rbp)
	movq	%rsi, -32(%rbp)
	movq	%rdx, -40(%rbp)
	movq	-40(%rbp), %rax
	movq	%rax, %rdi
	call	_ZSt12__niter_baseIPiET_S1_
	movq	%rax, %r12
	movq	-32(%rbp), %rax
	movq	%rax, %rdi
	call	_ZSt12__niter_baseIPKiSt6vectorIiSaIiEEET_N9__gnu_cxx17__normal_iteratorIS5_T0_EE
	movq	%rax, %rbx
	movq	-24(%rbp), %rax
	movq	%rax, %rdi
	call	_ZSt12__niter_baseIPKiSt6vectorIiSaIiEEET_N9__gnu_cxx17__normal_iteratorIS5_T0_EE
	movq	%r12, %rdx
	movq	%rbx, %rsi
	movq	%rax, %rdi
	call	_ZSt14__copy_move_a1ILb0EPKiPiET1_T0_S4_S3_
	movq	%rax, %rdx
	leaq	-40(%rbp), %rax
	movq	%rdx, %rsi
	movq	%rax, %rdi
	call	_ZSt12__niter_wrapIPiET_RKS1_S1_
	addq	$32, %rsp
	popq	%rbx
	popq	%r12
	popq	%rbp
	.cfi_def_cfa 7, 8
	ret
	.cfi_endproc
.LFE3403:
	.size	_ZSt13__copy_move_aILb0EN9__gnu_cxx17__normal_iteratorIPKiSt6vectorIiSaIiEEEEPiET1_T0_SA_S9_, .-_ZSt13__copy_move_aILb0EN9__gnu_cxx17__normal_iteratorIPKiSt6vectorIiSaIiEEEEPiET1_T0_SA_S9_
	.section	.text._ZSt7forwardIN7segtree4nodeEEOT_RNSt16remove_referenceIS2_E4typeE,"axG",@progbits,_ZSt7forwardIN7segtree4nodeEEOT_RNSt16remove_referenceIS2_E4typeE,comdat
	.weak	_ZSt7forwardIN7segtree4nodeEEOT_RNSt16remove_referenceIS2_E4typeE
	.type	_ZSt7forwardIN7segtree4nodeEEOT_RNSt16remove_referenceIS2_E4typeE, @function
_ZSt7forwardIN7segtree4nodeEEOT_RNSt16remove_referenceIS2_E4typeE:
.LFB3412:
	.cfi_startproc
	pushq	%rbp
	.cfi_def_cfa_offset 16
	.cfi_offset 6, -16
	movq	%rsp, %rbp
	.cfi_def_cfa_register 6
	movq	%rdi, -8(%rbp)
	movq	-8(%rbp), %rax
	popq	%rbp
	.cfi_def_cfa 7, 8
	ret
	.cfi_endproc
.LFE3412:
	.size	_ZSt7forwardIN7segtree4nodeEEOT_RNSt16remove_referenceIS2_E4typeE, .-_ZSt7forwardIN7segtree4nodeEEOT_RNSt16remove_referenceIS2_E4typeE
	.section	.text._ZSt12__miter_baseIPPiET_S2_,"axG",@progbits,_ZSt12__miter_baseIPPiET_S2_,comdat
	.weak	_ZSt12__miter_baseIPPiET_S2_
	.type	_ZSt12__miter_baseIPPiET_S2_, @function
_ZSt12__miter_baseIPPiET_S2_:
.LFB3415:
	.cfi_startproc
	pushq	%rbp
	.cfi_def_cfa_offset 16
	.cfi_offset 6, -16
	movq	%rsp, %rbp
	.cfi_def_cfa_register 6
	movq	%rdi, -8(%rbp)
	movq	-8(%rbp), %rax
	popq	%rbp
	.cfi_def_cfa 7, 8
	ret
	.cfi_endproc
.LFE3415:
	.size	_ZSt12__miter_baseIPPiET_S2_, .-_ZSt12__miter_baseIPPiET_S2_
	.section	.text._ZSt13__copy_move_aILb0EPPiS1_ET1_T0_S3_S2_,"axG",@progbits,_ZSt13__copy_move_aILb0EPPiS1_ET1_T0_S3_S2_,comdat
	.weak	_ZSt13__copy_move_aILb0EPPiS1_ET1_T0_S3_S2_
	.type	_ZSt13__copy_move_aILb0EPPiS1_ET1_T0_S3_S2_, @function
_ZSt13__copy_move_aILb0EPPiS1_ET1_T0_S3_S2_:
.LFB3416:
	.cfi_startproc
	pushq	%rbp
	.cfi_def_cfa_offset 16
	.cfi_offset 6, -16
	movq	%rsp, %rbp
	.cfi_def_cfa_register 6
	pushq	%r12
	pushq	%rbx
	subq	$32, %rsp
	.cfi_offset 12, -24
	.cfi_offset 3, -32
	movq	%rdi, -24(%rbp)
	movq	%rsi, -32(%rbp)
	movq	%rdx, -40(%rbp)
	movq	-40(%rbp), %rax
	movq	%rax, %rdi
	call	_ZSt12__niter_baseIPPiET_S2_
	movq	%rax, %r12
	movq	-32(%rbp), %rax
	movq	%rax, %rdi
	call	_ZSt12__niter_baseIPPiET_S2_
	movq	%rax, %rbx
	movq	-24(%rbp), %rax
	movq	%rax, %rdi
	call	_ZSt12__niter_baseIPPiET_S2_
	movq	%r12, %rdx
	movq	%rbx, %rsi
	movq	%rax, %rdi
	call	_ZSt14__copy_move_a1ILb0EPPiS1_ET1_T0_S3_S2_
	movq	%rax, %rdx
	leaq	-40(%rbp), %rax
	movq	%rdx, %rsi
	movq	%rax, %rdi
	call	_ZSt12__niter_wrapIPPiET_RKS2_S2_
	addq	$32, %rsp
	popq	%rbx
	popq	%r12
	popq	%rbp
	.cfi_def_cfa 7, 8
	ret
	.cfi_endproc
.LFE3416:
	.size	_ZSt13__copy_move_aILb0EPPiS1_ET1_T0_S3_S2_, .-_ZSt13__copy_move_aILb0EPPiS1_ET1_T0_S3_S2_
	.section	.text._ZSt22__copy_move_backward_aILb0EPPiS1_ET1_T0_S3_S2_,"axG",@progbits,_ZSt22__copy_move_backward_aILb0EPPiS1_ET1_T0_S3_S2_,comdat
	.weak	_ZSt22__copy_move_backward_aILb0EPPiS1_ET1_T0_S3_S2_
	.type	_ZSt22__copy_move_backward_aILb0EPPiS1_ET1_T0_S3_S2_, @function
_ZSt22__copy_move_backward_aILb0EPPiS1_ET1_T0_S3_S2_:
.LFB3418:
	.cfi_startproc
	pushq	%rbp
	.cfi_def_cfa_offset 16
	.cfi_offset 6, -16
	movq	%rsp, %rbp
	.cfi_def_cfa_register 6
	pushq	%r12
	pushq	%rbx
	subq	$32, %rsp
	.cfi_offset 12, -24
	.cfi_offset 3, -32
	movq	%rdi, -24(%rbp)
	movq	%rsi, -32(%rbp)
	movq	%rdx, -40(%rbp)
	movq	-40(%rbp), %rax
	movq	%rax, %rdi
	call	_ZSt12__niter_baseIPPiET_S2_
	movq	%rax, %r12
	movq	-32(%rbp), %rax
	movq	%rax, %rdi
	call	_ZSt12__niter_baseIPPiET_S2_
	movq	%rax, %rbx
	movq	-24(%rbp), %rax
	movq	%rax, %rdi
	call	_ZSt12__niter_baseIPPiET_S2_
	movq	%r12, %rdx
	movq	%rbx, %rsi
	movq	%rax, %rdi
	call	_ZSt23__copy_move_backward_a1ILb0EPPiS1_ET1_T0_S3_S2_
	movq	%rax, %rdx
	leaq	-40(%rbp), %rax
	movq	%rdx, %rsi
	movq	%rax, %rdi
	call	_ZSt12__niter_wrapIPPiET_RKS2_S2_
	addq	$32, %rsp
	popq	%rbx
	popq	%r12
	popq	%rbp
	.cfi_def_cfa 7, 8
	ret
	.cfi_endproc
.LFE3418:
	.size	_ZSt22__copy_move_backward_aILb0EPPiS1_ET1_T0_S3_S2_, .-_ZSt22__copy_move_backward_aILb0EPPiS1_ET1_T0_S3_S2_
	.section	.text._ZSt10__fill_n_aIPimiET_S1_T0_RKT1_St26random_access_iterator_tag,"axG",@progbits,_ZSt10__fill_n_aIPimiET_S1_T0_RKT1_St26random_access_iterator_tag,comdat
	.weak	_ZSt10__fill_n_aIPimiET_S1_T0_RKT1_St26random_access_iterator_tag
	.type	_ZSt10__fill_n_aIPimiET_S1_T0_RKT1_St26random_access_iterator_tag, @function
_ZSt10__fill_n_aIPimiET_S1_T0_RKT1_St26random_access_iterator_tag:
.LFB3420:
	.cfi_startproc
	pushq	%rbp
	.cfi_def_cfa_offset 16
	.cfi_offset 6, -16
	movq	%rsp, %rbp
	.cfi_def_cfa_register 6
	subq	$32, %rsp
	movq	%rdi, -8(%rbp)
	movq	%rsi, -16(%rbp)
	movq	%rdx, -24(%rbp)
	cmpq	$0, -16(%rbp)
	jne	.L416
	movq	-8(%rbp), %rax
	jmp	.L417
.L416:
	movq	-16(%rbp), %rax
	leaq	0(,%rax,4), %rdx
	movq	-8(%rbp), %rax
	leaq	(%rdx,%rax), %rcx
	movq	-24(%rbp), %rdx
	movq	-8(%rbp), %rax
	movq	%rcx, %rsi
	movq	%rax, %rdi
	call	_ZSt8__fill_aIPiiEvT_S1_RKT0_
	movq	-16(%rbp), %rax
	leaq	0(,%rax,4), %rdx
	movq	-8(%rbp), %rax
	addq	%rdx, %rax
.L417:
	leave
	.cfi_def_cfa 7, 8
	ret
	.cfi_endproc
.LFE3420:
	.size	_ZSt10__fill_n_aIPimiET_S1_T0_RKT1_St26random_access_iterator_tag, .-_ZSt10__fill_n_aIPimiET_S1_T0_RKT1_St26random_access_iterator_tag
	.section	.text._ZSt12__niter_baseIPKiSt6vectorIiSaIiEEET_N9__gnu_cxx17__normal_iteratorIS5_T0_EE,"axG",@progbits,_ZSt12__niter_baseIPKiSt6vectorIiSaIiEEET_N9__gnu_cxx17__normal_iteratorIS5_T0_EE,comdat
	.weak	_ZSt12__niter_baseIPKiSt6vectorIiSaIiEEET_N9__gnu_cxx17__normal_iteratorIS5_T0_EE
	.type	_ZSt12__niter_baseIPKiSt6vectorIiSaIiEEET_N9__gnu_cxx17__normal_iteratorIS5_T0_EE, @function
_ZSt12__niter_baseIPKiSt6vectorIiSaIiEEET_N9__gnu_cxx17__normal_iteratorIS5_T0_EE:
.LFB3421:
	.cfi_startproc
	pushq	%rbp
	.cfi_def_cfa_offset 16
	.cfi_offset 6, -16
	movq	%rsp, %rbp
	.cfi_def_cfa_register 6
	subq	$16, %rsp
	movq	%rdi, -8(%rbp)
	leaq	-8(%rbp), %rax
	movq	%rax, %rdi
	call	_ZNK9__gnu_cxx17__normal_iteratorIPKiSt6vectorIiSaIiEEE4baseEv
	movq	(%rax), %rax
	leave
	.cfi_def_cfa 7, 8
	ret
	.cfi_endproc
.LFE3421:
	.size	_ZSt12__niter_baseIPKiSt6vectorIiSaIiEEET_N9__gnu_cxx17__normal_iteratorIS5_T0_EE, .-_ZSt12__niter_baseIPKiSt6vectorIiSaIiEEET_N9__gnu_cxx17__normal_iteratorIS5_T0_EE
	.section	.text._ZSt12__niter_baseIPiET_S1_,"axG",@progbits,_ZSt12__niter_baseIPiET_S1_,comdat
	.weak	_ZSt12__niter_baseIPiET_S1_
	.type	_ZSt12__niter_baseIPiET_S1_, @function
_ZSt12__niter_baseIPiET_S1_:
.LFB3422:
	.cfi_startproc
	pushq	%rbp
	.cfi_def_cfa_offset 16
	.cfi_offset 6, -16
	movq	%rsp, %rbp
	.cfi_def_cfa_register 6
	movq	%rdi, -8(%rbp)
	movq	-8(%rbp), %rax
	popq	%rbp
	.cfi_def_cfa 7, 8
	ret
	.cfi_endproc
.LFE3422:
	.size	_ZSt12__niter_baseIPiET_S1_, .-_ZSt12__niter_baseIPiET_S1_
	.section	.text._ZSt14__copy_move_a1ILb0EPKiPiET1_T0_S4_S3_,"axG",@progbits,_ZSt14__copy_move_a1ILb0EPKiPiET1_T0_S4_S3_,comdat
	.weak	_ZSt14__copy_move_a1ILb0EPKiPiET1_T0_S4_S3_
	.type	_ZSt14__copy_move_a1ILb0EPKiPiET1_T0_S4_S3_, @function
_ZSt14__copy_move_a1ILb0EPKiPiET1_T0_S4_S3_:
.LFB3423:
	.cfi_startproc
	pushq	%rbp
	.cfi_def_cfa_offset 16
	.cfi_offset 6, -16
	movq	%rsp, %rbp
	.cfi_def_cfa_register 6
	subq	$32, %rsp
	movq	%rdi, -8(%rbp)
	movq	%rsi, -16(%rbp)
	movq	%rdx, -24(%rbp)
	movq	-24(%rbp), %rdx
	movq	-16(%rbp), %rcx
	movq	-8(%rbp), %rax
	movq	%rcx, %rsi
	movq	%rax, %rdi
	call	_ZSt14__copy_move_a2ILb0EPKiPiET1_T0_S4_S3_
	leave
	.cfi_def_cfa 7, 8
	ret
	.cfi_endproc
.LFE3423:
	.size	_ZSt14__copy_move_a1ILb0EPKiPiET1_T0_S4_S3_, .-_ZSt14__copy_move_a1ILb0EPKiPiET1_T0_S4_S3_
	.section	.text._ZSt12__niter_wrapIPiET_RKS1_S1_,"axG",@progbits,_ZSt12__niter_wrapIPiET_RKS1_S1_,comdat
	.weak	_ZSt12__niter_wrapIPiET_RKS1_S1_
	.type	_ZSt12__niter_wrapIPiET_RKS1_S1_, @function
_ZSt12__niter_wrapIPiET_RKS1_S1_:
.LFB3424:
	.cfi_startproc
	pushq	%rbp
	.cfi_def_cfa_offset 16
	.cfi_offset 6, -16
	movq	%rsp, %rbp
	.cfi_def_cfa_register 6
	movq	%rdi, -8(%rbp)
	movq	%rsi, -16(%rbp)
	movq	-16(%rbp), %rax
	popq	%rbp
	.cfi_def_cfa 7, 8
	ret
	.cfi_endproc
.LFE3424:
	.size	_ZSt12__niter_wrapIPiET_RKS1_S1_, .-_ZSt12__niter_wrapIPiET_RKS1_S1_
	.section	.text._ZSt12__niter_baseIPPiET_S2_,"axG",@progbits,_ZSt12__niter_baseIPPiET_S2_,comdat
	.weak	_ZSt12__niter_baseIPPiET_S2_
	.type	_ZSt12__niter_baseIPPiET_S2_, @function
_ZSt12__niter_baseIPPiET_S2_:
.LFB3426:
	.cfi_startproc
	pushq	%rbp
	.cfi_def_cfa_offset 16
	.cfi_offset 6, -16
	movq	%rsp, %rbp
	.cfi_def_cfa_register 6
	movq	%rdi, -8(%rbp)
	movq	-8(%rbp), %rax
	popq	%rbp
	.cfi_def_cfa 7, 8
	ret
	.cfi_endproc
.LFE3426:
	.size	_ZSt12__niter_baseIPPiET_S2_, .-_ZSt12__niter_baseIPPiET_S2_
	.section	.text._ZSt14__copy_move_a1ILb0EPPiS1_ET1_T0_S3_S2_,"axG",@progbits,_ZSt14__copy_move_a1ILb0EPPiS1_ET1_T0_S3_S2_,comdat
	.weak	_ZSt14__copy_move_a1ILb0EPPiS1_ET1_T0_S3_S2_
	.type	_ZSt14__copy_move_a1ILb0EPPiS1_ET1_T0_S3_S2_, @function
_ZSt14__copy_move_a1ILb0EPPiS1_ET1_T0_S3_S2_:
.LFB3427:
	.cfi_startproc
	pushq	%rbp
	.cfi_def_cfa_offset 16
	.cfi_offset 6, -16
	movq	%rsp, %rbp
	.cfi_def_cfa_register 6
	subq	$32, %rsp
	movq	%rdi, -8(%rbp)
	movq	%rsi, -16(%rbp)
	movq	%rdx, -24(%rbp)
	movq	-24(%rbp), %rdx
	movq	-16(%rbp), %rcx
	movq	-8(%rbp), %rax
	movq	%rcx, %rsi
	movq	%rax, %rdi
	call	_ZSt14__copy_move_a2ILb0EPPiS1_ET1_T0_S3_S2_
	leave
	.cfi_def_cfa 7, 8
	ret
	.cfi_endproc
.LFE3427:
	.size	_ZSt14__copy_move_a1ILb0EPPiS1_ET1_T0_S3_S2_, .-_ZSt14__copy_move_a1ILb0EPPiS1_ET1_T0_S3_S2_
	.section	.text._ZSt12__niter_wrapIPPiET_RKS2_S2_,"axG",@progbits,_ZSt12__niter_wrapIPPiET_RKS2_S2_,comdat
	.weak	_ZSt12__niter_wrapIPPiET_RKS2_S2_
	.type	_ZSt12__niter_wrapIPPiET_RKS2_S2_, @function
_ZSt12__niter_wrapIPPiET_RKS2_S2_:
.LFB3428:
	.cfi_startproc
	pushq	%rbp
	.cfi_def_cfa_offset 16
	.cfi_offset 6, -16
	movq	%rsp, %rbp
	.cfi_def_cfa_register 6
	movq	%rdi, -8(%rbp)
	movq	%rsi, -16(%rbp)
	movq	-16(%rbp), %rax
	popq	%rbp
	.cfi_def_cfa 7, 8
	ret
	.cfi_endproc
.LFE3428:
	.size	_ZSt12__niter_wrapIPPiET_RKS2_S2_, .-_ZSt12__niter_wrapIPPiET_RKS2_S2_
	.section	.text._ZSt23__copy_move_backward_a1ILb0EPPiS1_ET1_T0_S3_S2_,"axG",@progbits,_ZSt23__copy_move_backward_a1ILb0EPPiS1_ET1_T0_S3_S2_,comdat
	.weak	_ZSt23__copy_move_backward_a1ILb0EPPiS1_ET1_T0_S3_S2_
	.type	_ZSt23__copy_move_backward_a1ILb0EPPiS1_ET1_T0_S3_S2_, @function
_ZSt23__copy_move_backward_a1ILb0EPPiS1_ET1_T0_S3_S2_:
.LFB3429:
	.cfi_startproc
	pushq	%rbp
	.cfi_def_cfa_offset 16
	.cfi_offset 6, -16
	movq	%rsp, %rbp
	.cfi_def_cfa_register 6
	subq	$32, %rsp
	movq	%rdi, -8(%rbp)
	movq	%rsi, -16(%rbp)
	movq	%rdx, -24(%rbp)
	movq	-24(%rbp), %rdx
	movq	-16(%rbp), %rcx
	movq	-8(%rbp), %rax
	movq	%rcx, %rsi
	movq	%rax, %rdi
	call	_ZSt23__copy_move_backward_a2ILb0EPPiS1_ET1_T0_S3_S2_
	leave
	.cfi_def_cfa 7, 8
	ret
	.cfi_endproc
.LFE3429:
	.size	_ZSt23__copy_move_backward_a1ILb0EPPiS1_ET1_T0_S3_S2_, .-_ZSt23__copy_move_backward_a1ILb0EPPiS1_ET1_T0_S3_S2_
	.section	.text._ZSt8__fill_aIPiiEvT_S1_RKT0_,"axG",@progbits,_ZSt8__fill_aIPiiEvT_S1_RKT0_,comdat
	.weak	_ZSt8__fill_aIPiiEvT_S1_RKT0_
	.type	_ZSt8__fill_aIPiiEvT_S1_RKT0_, @function
_ZSt8__fill_aIPiiEvT_S1_RKT0_:
.LFB3430:
	.cfi_startproc
	pushq	%rbp
	.cfi_def_cfa_offset 16
	.cfi_offset 6, -16
	movq	%rsp, %rbp
	.cfi_def_cfa_register 6
	subq	$32, %rsp
	movq	%rdi, -8(%rbp)
	movq	%rsi, -16(%rbp)
	movq	%rdx, -24(%rbp)
	movq	-24(%rbp), %rdx
	movq	-16(%rbp), %rcx
	movq	-8(%rbp), %rax
	movq	%rcx, %rsi
	movq	%rax, %rdi
	call	_ZSt9__fill_a1IPiiEN9__gnu_cxx11__enable_ifIXsrSt11__is_scalarIT0_E7__valueEvE6__typeET_S8_RKS4_
	nop
	leave
	.cfi_def_cfa 7, 8
	ret
	.cfi_endproc
.LFE3430:
	.size	_ZSt8__fill_aIPiiEvT_S1_RKT0_, .-_ZSt8__fill_aIPiiEvT_S1_RKT0_
	.section	.text._ZNK9__gnu_cxx17__normal_iteratorIPKiSt6vectorIiSaIiEEE4baseEv,"axG",@progbits,_ZNK9__gnu_cxx17__normal_iteratorIPKiSt6vectorIiSaIiEEE4baseEv,comdat
	.align 2
	.weak	_ZNK9__gnu_cxx17__normal_iteratorIPKiSt6vectorIiSaIiEEE4baseEv
	.type	_ZNK9__gnu_cxx17__normal_iteratorIPKiSt6vectorIiSaIiEEE4baseEv, @function
_ZNK9__gnu_cxx17__normal_iteratorIPKiSt6vectorIiSaIiEEE4baseEv:
.LFB3431:
	.cfi_startproc
	pushq	%rbp
	.cfi_def_cfa_offset 16
	.cfi_offset 6, -16
	movq	%rsp, %rbp
	.cfi_def_cfa_register 6
	movq	%rdi, -8(%rbp)
	movq	-8(%rbp), %rax
	popq	%rbp
	.cfi_def_cfa 7, 8
	ret
	.cfi_endproc
.LFE3431:
	.size	_ZNK9__gnu_cxx17__normal_iteratorIPKiSt6vectorIiSaIiEEE4baseEv, .-_ZNK9__gnu_cxx17__normal_iteratorIPKiSt6vectorIiSaIiEEE4baseEv
	.section	.text._ZSt14__copy_move_a2ILb0EPKiPiET1_T0_S4_S3_,"axG",@progbits,_ZSt14__copy_move_a2ILb0EPKiPiET1_T0_S4_S3_,comdat
	.weak	_ZSt14__copy_move_a2ILb0EPKiPiET1_T0_S4_S3_
	.type	_ZSt14__copy_move_a2ILb0EPKiPiET1_T0_S4_S3_, @function
_ZSt14__copy_move_a2ILb0EPKiPiET1_T0_S4_S3_:
.LFB3432:
	.cfi_startproc
	pushq	%rbp
	.cfi_def_cfa_offset 16
	.cfi_offset 6, -16
	movq	%rsp, %rbp
	.cfi_def_cfa_register 6
	subq	$32, %rsp
	movq	%rdi, -8(%rbp)
	movq	%rsi, -16(%rbp)
	movq	%rdx, -24(%rbp)
	movq	-24(%rbp), %rdx
	movq	-16(%rbp), %rcx
	movq	-8(%rbp), %rax
	movq	%rcx, %rsi
	movq	%rax, %rdi
	call	_ZNSt11__copy_moveILb0ELb1ESt26random_access_iterator_tagE8__copy_mIKiiEEPT0_PT_S7_S5_
	leave
	.cfi_def_cfa 7, 8
	ret
	.cfi_endproc
.LFE3432:
	.size	_ZSt14__copy_move_a2ILb0EPKiPiET1_T0_S4_S3_, .-_ZSt14__copy_move_a2ILb0EPKiPiET1_T0_S4_S3_
	.section	.text._ZSt14__copy_move_a2ILb0EPPiS1_ET1_T0_S3_S2_,"axG",@progbits,_ZSt14__copy_move_a2ILb0EPPiS1_ET1_T0_S3_S2_,comdat
	.weak	_ZSt14__copy_move_a2ILb0EPPiS1_ET1_T0_S3_S2_
	.type	_ZSt14__copy_move_a2ILb0EPPiS1_ET1_T0_S3_S2_, @function
_ZSt14__copy_move_a2ILb0EPPiS1_ET1_T0_S3_S2_:
.LFB3433:
	.cfi_startproc
	pushq	%rbp
	.cfi_def_cfa_offset 16
	.cfi_offset 6, -16
	movq	%rsp, %rbp
	.cfi_def_cfa_register 6
	subq	$32, %rsp
	movq	%rdi, -8(%rbp)
	movq	%rsi, -16(%rbp)
	movq	%rdx, -24(%rbp)
	movq	-24(%rbp), %rdx
	movq	-16(%rbp), %rcx
	movq	-8(%rbp), %rax
	movq	%rcx, %rsi
	movq	%rax, %rdi
	call	_ZNSt11__copy_moveILb0ELb1ESt26random_access_iterator_tagE8__copy_mIPiS3_EEPT0_PT_S7_S5_
	leave
	.cfi_def_cfa 7, 8
	ret
	.cfi_endproc
.LFE3433:
	.size	_ZSt14__copy_move_a2ILb0EPPiS1_ET1_T0_S3_S2_, .-_ZSt14__copy_move_a2ILb0EPPiS1_ET1_T0_S3_S2_
	.section	.text._ZSt23__copy_move_backward_a2ILb0EPPiS1_ET1_T0_S3_S2_,"axG",@progbits,_ZSt23__copy_move_backward_a2ILb0EPPiS1_ET1_T0_S3_S2_,comdat
	.weak	_ZSt23__copy_move_backward_a2ILb0EPPiS1_ET1_T0_S3_S2_
	.type	_ZSt23__copy_move_backward_a2ILb0EPPiS1_ET1_T0_S3_S2_, @function
_ZSt23__copy_move_backward_a2ILb0EPPiS1_ET1_T0_S3_S2_:
.LFB3434:
	.cfi_startproc
	pushq	%rbp
	.cfi_def_cfa_offset 16
	.cfi_offset 6, -16
	movq	%rsp, %rbp
	.cfi_def_cfa_register 6
	subq	$32, %rsp
	movq	%rdi, -8(%rbp)
	movq	%rsi, -16(%rbp)
	movq	%rdx, -24(%rbp)
	movq	-24(%rbp), %rdx
	movq	-16(%rbp), %rcx
	movq	-8(%rbp), %rax
	movq	%rcx, %rsi
	movq	%rax, %rdi
	call	_ZNSt20__copy_move_backwardILb0ELb1ESt26random_access_iterator_tagE13__copy_move_bIPiS3_EEPT0_PT_S7_S5_
	leave
	.cfi_def_cfa 7, 8
	ret
	.cfi_endproc
.LFE3434:
	.size	_ZSt23__copy_move_backward_a2ILb0EPPiS1_ET1_T0_S3_S2_, .-_ZSt23__copy_move_backward_a2ILb0EPPiS1_ET1_T0_S3_S2_
	.section	.text._ZSt9__fill_a1IPiiEN9__gnu_cxx11__enable_ifIXsrSt11__is_scalarIT0_E7__valueEvE6__typeET_S8_RKS4_,"axG",@progbits,_ZSt9__fill_a1IPiiEN9__gnu_cxx11__enable_ifIXsrSt11__is_scalarIT0_E7__valueEvE6__typeET_S8_RKS4_,comdat
	.weak	_ZSt9__fill_a1IPiiEN9__gnu_cxx11__enable_ifIXsrSt11__is_scalarIT0_E7__valueEvE6__typeET_S8_RKS4_
	.type	_ZSt9__fill_a1IPiiEN9__gnu_cxx11__enable_ifIXsrSt11__is_scalarIT0_E7__valueEvE6__typeET_S8_RKS4_, @function
_ZSt9__fill_a1IPiiEN9__gnu_cxx11__enable_ifIXsrSt11__is_scalarIT0_E7__valueEvE6__typeET_S8_RKS4_:
.LFB3435:
	.cfi_startproc
	pushq	%rbp
	.cfi_def_cfa_offset 16
	.cfi_offset 6, -16
	movq	%rsp, %rbp
	.cfi_def_cfa_register 6
	movq	%rdi, -24(%rbp)
	movq	%rsi, -32(%rbp)
	movq	%rdx, -40(%rbp)
	movq	-40(%rbp), %rax
	movl	(%rax), %eax
	movl	%eax, -4(%rbp)
	jmp	.L444
.L445:
	movq	-24(%rbp), %rax
	movl	-4(%rbp), %edx
	movl	%edx, (%rax)
	addq	$4, -24(%rbp)
.L444:
	movq	-24(%rbp), %rax
	cmpq	-32(%rbp), %rax
	jne	.L445
	nop
	nop
	popq	%rbp
	.cfi_def_cfa 7, 8
	ret
	.cfi_endproc
.LFE3435:
	.size	_ZSt9__fill_a1IPiiEN9__gnu_cxx11__enable_ifIXsrSt11__is_scalarIT0_E7__valueEvE6__typeET_S8_RKS4_, .-_ZSt9__fill_a1IPiiEN9__gnu_cxx11__enable_ifIXsrSt11__is_scalarIT0_E7__valueEvE6__typeET_S8_RKS4_
	.section	.text._ZNSt11__copy_moveILb0ELb1ESt26random_access_iterator_tagE8__copy_mIKiiEEPT0_PT_S7_S5_,"axG",@progbits,_ZNSt11__copy_moveILb0ELb1ESt26random_access_iterator_tagE8__copy_mIKiiEEPT0_PT_S7_S5_,comdat
	.weak	_ZNSt11__copy_moveILb0ELb1ESt26random_access_iterator_tagE8__copy_mIKiiEEPT0_PT_S7_S5_
	.type	_ZNSt11__copy_moveILb0ELb1ESt26random_access_iterator_tagE8__copy_mIKiiEEPT0_PT_S7_S5_, @function
_ZNSt11__copy_moveILb0ELb1ESt26random_access_iterator_tagE8__copy_mIKiiEEPT0_PT_S7_S5_:
.LFB3436:
	.cfi_startproc
	pushq	%rbp
	.cfi_def_cfa_offset 16
	.cfi_offset 6, -16
	movq	%rsp, %rbp
	.cfi_def_cfa_register 6
	subq	$48, %rsp
	movq	%rdi, -24(%rbp)
	movq	%rsi, -32(%rbp)
	movq	%rdx, -40(%rbp)
	movq	-32(%rbp), %rax
	subq	-24(%rbp), %rax
	sarq	$2, %rax
	movq	%rax, -8(%rbp)
	cmpq	$1, -8(%rbp)
	setg	%al
	movzbl	%al, %eax
	testq	%rax, %rax
	je	.L447
	movq	-8(%rbp), %rax
	leaq	0(,%rax,4), %rdx
	movq	-24(%rbp), %rcx
	movq	-40(%rbp), %rax
	movq	%rcx, %rsi
	movq	%rax, %rdi
	call	memmove@PLT
	jmp	.L448
.L447:
	cmpq	$1, -8(%rbp)
	jne	.L448
	movq	-24(%rbp), %rdx
	movq	-40(%rbp), %rax
	movq	%rdx, %rsi
	movq	%rax, %rdi
	call	_ZNSt11__copy_moveILb0ELb0ESt26random_access_iterator_tagE12__assign_oneIiKiEEvPT_PT0_
.L448:
	movq	-8(%rbp), %rax
	leaq	0(,%rax,4), %rdx
	movq	-40(%rbp), %rax
	addq	%rdx, %rax
	leave
	.cfi_def_cfa 7, 8
	ret
	.cfi_endproc
.LFE3436:
	.size	_ZNSt11__copy_moveILb0ELb1ESt26random_access_iterator_tagE8__copy_mIKiiEEPT0_PT_S7_S5_, .-_ZNSt11__copy_moveILb0ELb1ESt26random_access_iterator_tagE8__copy_mIKiiEEPT0_PT_S7_S5_
	.section	.text._ZNSt11__copy_moveILb0ELb1ESt26random_access_iterator_tagE8__copy_mIPiS3_EEPT0_PT_S7_S5_,"axG",@progbits,_ZNSt11__copy_moveILb0ELb1ESt26random_access_iterator_tagE8__copy_mIPiS3_EEPT0_PT_S7_S5_,comdat
	.weak	_ZNSt11__copy_moveILb0ELb1ESt26random_access_iterator_tagE8__copy_mIPiS3_EEPT0_PT_S7_S5_
	.type	_ZNSt11__copy_moveILb0ELb1ESt26random_access_iterator_tagE8__copy_mIPiS3_EEPT0_PT_S7_S5_, @function
_ZNSt11__copy_moveILb0ELb1ESt26random_access_iterator_tagE8__copy_mIPiS3_EEPT0_PT_S7_S5_:
.LFB3437:
	.cfi_startproc
	pushq	%rbp
	.cfi_def_cfa_offset 16
	.cfi_offset 6, -16
	movq	%rsp, %rbp
	.cfi_def_cfa_register 6
	subq	$48, %rsp
	movq	%rdi, -24(%rbp)
	movq	%rsi, -32(%rbp)
	movq	%rdx, -40(%rbp)
	movq	-32(%rbp), %rax
	subq	-24(%rbp), %rax
	sarq	$3, %rax
	movq	%rax, -8(%rbp)
	cmpq	$1, -8(%rbp)
	setg	%al
	movzbl	%al, %eax
	testq	%rax, %rax
	je	.L451
	movq	-8(%rbp), %rax
	leaq	0(,%rax,8), %rdx
	movq	-24(%rbp), %rcx
	movq	-40(%rbp), %rax
	movq	%rcx, %rsi
	movq	%rax, %rdi
	call	memmove@PLT
	jmp	.L452
.L451:
	cmpq	$1, -8(%rbp)
	jne	.L452
	movq	-24(%rbp), %rdx
	movq	-40(%rbp), %rax
	movq	%rdx, %rsi
	movq	%rax, %rdi
	call	_ZNSt11__copy_moveILb0ELb0ESt26random_access_iterator_tagE12__assign_oneIPiS3_EEvPT_PT0_
.L452:
	movq	-8(%rbp), %rax
	leaq	0(,%rax,8), %rdx
	movq	-40(%rbp), %rax
	addq	%rdx, %rax
	leave
	.cfi_def_cfa 7, 8
	ret
	.cfi_endproc
.LFE3437:
	.size	_ZNSt11__copy_moveILb0ELb1ESt26random_access_iterator_tagE8__copy_mIPiS3_EEPT0_PT_S7_S5_, .-_ZNSt11__copy_moveILb0ELb1ESt26random_access_iterator_tagE8__copy_mIPiS3_EEPT0_PT_S7_S5_
	.section	.text._ZNSt20__copy_move_backwardILb0ELb1ESt26random_access_iterator_tagE13__copy_move_bIPiS3_EEPT0_PT_S7_S5_,"axG",@progbits,_ZNSt20__copy_move_backwardILb0ELb1ESt26random_access_iterator_tagE13__copy_move_bIPiS3_EEPT0_PT_S7_S5_,comdat
	.weak	_ZNSt20__copy_move_backwardILb0ELb1ESt26random_access_iterator_tagE13__copy_move_bIPiS3_EEPT0_PT_S7_S5_
	.type	_ZNSt20__copy_move_backwardILb0ELb1ESt26random_access_iterator_tagE13__copy_move_bIPiS3_EEPT0_PT_S7_S5_, @function
_ZNSt20__copy_move_backwardILb0ELb1ESt26random_access_iterator_tagE13__copy_move_bIPiS3_EEPT0_PT_S7_S5_:
.LFB3438:
	.cfi_startproc
	pushq	%rbp
	.cfi_def_cfa_offset 16
	.cfi_offset 6, -16
	movq	%rsp, %rbp
	.cfi_def_cfa_register 6
	subq	$48, %rsp
	movq	%rdi, -24(%rbp)
	movq	%rsi, -32(%rbp)
	movq	%rdx, -40(%rbp)
	movq	-32(%rbp), %rax
	subq	-24(%rbp), %rax
	sarq	$3, %rax
	movq	%rax, -8(%rbp)
	cmpq	$1, -8(%rbp)
	setg	%al
	movzbl	%al, %eax
	testq	%rax, %rax
	je	.L455
	movq	-8(%rbp), %rax
	leaq	0(,%rax,8), %rdx
	movq	-8(%rbp), %rax
	salq	$3, %rax
	negq	%rax
	movq	%rax, %rcx
	movq	-40(%rbp), %rax
	addq	%rax, %rcx
	movq	-24(%rbp), %rax
	movq	%rax, %rsi
	movq	%rcx, %rdi
	call	memmove@PLT
	jmp	.L456
.L455:
	cmpq	$1, -8(%rbp)
	jne	.L456
	movq	-40(%rbp), %rax
	leaq	-8(%rax), %rdx
	movq	-24(%rbp), %rax
	movq	%rax, %rsi
	movq	%rdx, %rdi
	call	_ZNSt11__copy_moveILb0ELb0ESt26random_access_iterator_tagE12__assign_oneIPiS3_EEvPT_PT0_
.L456:
	movq	-8(%rbp), %rax
	salq	$3, %rax
	negq	%rax
	movq	%rax, %rdx
	movq	-40(%rbp), %rax
	addq	%rdx, %rax
	leave
	.cfi_def_cfa 7, 8
	ret
	.cfi_endproc
.LFE3438:
	.size	_ZNSt20__copy_move_backwardILb0ELb1ESt26random_access_iterator_tagE13__copy_move_bIPiS3_EEPT0_PT_S7_S5_, .-_ZNSt20__copy_move_backwardILb0ELb1ESt26random_access_iterator_tagE13__copy_move_bIPiS3_EEPT0_PT_S7_S5_
	.section	.text._ZNSt11__copy_moveILb0ELb0ESt26random_access_iterator_tagE12__assign_oneIiKiEEvPT_PT0_,"axG",@progbits,_ZNSt11__copy_moveILb0ELb0ESt26random_access_iterator_tagE12__assign_oneIiKiEEvPT_PT0_,comdat
	.weak	_ZNSt11__copy_moveILb0ELb0ESt26random_access_iterator_tagE12__assign_oneIiKiEEvPT_PT0_
	.type	_ZNSt11__copy_moveILb0ELb0ESt26random_access_iterator_tagE12__assign_oneIiKiEEvPT_PT0_, @function
_ZNSt11__copy_moveILb0ELb0ESt26random_access_iterator_tagE12__assign_oneIiKiEEvPT_PT0_:
.LFB3439:
	.cfi_startproc
	pushq	%rbp
	.cfi_def_cfa_offset 16
	.cfi_offset 6, -16
	movq	%rsp, %rbp
	.cfi_def_cfa_register 6
	movq	%rdi, -8(%rbp)
	movq	%rsi, -16(%rbp)
	movq	-16(%rbp), %rax
	movl	(%rax), %edx
	movq	-8(%rbp), %rax
	movl	%edx, (%rax)
	nop
	popq	%rbp
	.cfi_def_cfa 7, 8
	ret
	.cfi_endproc
.LFE3439:
	.size	_ZNSt11__copy_moveILb0ELb0ESt26random_access_iterator_tagE12__assign_oneIiKiEEvPT_PT0_, .-_ZNSt11__copy_moveILb0ELb0ESt26random_access_iterator_tagE12__assign_oneIiKiEEvPT_PT0_
	.section	.text._ZNSt11__copy_moveILb0ELb0ESt26random_access_iterator_tagE12__assign_oneIPiS3_EEvPT_PT0_,"axG",@progbits,_ZNSt11__copy_moveILb0ELb0ESt26random_access_iterator_tagE12__assign_oneIPiS3_EEvPT_PT0_,comdat
	.weak	_ZNSt11__copy_moveILb0ELb0ESt26random_access_iterator_tagE12__assign_oneIPiS3_EEvPT_PT0_
	.type	_ZNSt11__copy_moveILb0ELb0ESt26random_access_iterator_tagE12__assign_oneIPiS3_EEvPT_PT0_, @function
_ZNSt11__copy_moveILb0ELb0ESt26random_access_iterator_tagE12__assign_oneIPiS3_EEvPT_PT0_:
.LFB3440:
	.cfi_startproc
	pushq	%rbp
	.cfi_def_cfa_offset 16
	.cfi_offset 6, -16
	movq	%rsp, %rbp
	.cfi_def_cfa_register 6
	movq	%rdi, -8(%rbp)
	movq	%rsi, -16(%rbp)
	movq	-16(%rbp), %rax
	movq	(%rax), %rdx
	movq	-8(%rbp), %rax
	movq	%rdx, (%rax)
	nop
	popq	%rbp
	.cfi_def_cfa 7, 8
	ret
	.cfi_endproc
.LFE3440:
	.size	_ZNSt11__copy_moveILb0ELb0ESt26random_access_iterator_tagE12__assign_oneIPiS3_EEvPT_PT0_, .-_ZNSt11__copy_moveILb0ELb0ESt26random_access_iterator_tagE12__assign_oneIPiS3_EEvPT_PT0_
	.section	.rodata
	.type	_ZNSt8__detail30__integer_to_chars_is_unsignedIjEE, @object
	.size	_ZNSt8__detail30__integer_to_chars_is_unsignedIjEE, 1
_ZNSt8__detail30__integer_to_chars_is_unsignedIjEE:
	.byte	1
	.type	_ZNSt8__detail30__integer_to_chars_is_unsignedImEE, @object
	.size	_ZNSt8__detail30__integer_to_chars_is_unsignedImEE, 1
_ZNSt8__detail30__integer_to_chars_is_unsignedImEE:
	.byte	1
	.type	_ZNSt8__detail30__integer_to_chars_is_unsignedIyEE, @object
	.size	_ZNSt8__detail30__integer_to_chars_is_unsignedIyEE, 1
_ZNSt8__detail30__integer_to_chars_is_unsignedIyEE:
	.byte	1
	.hidden	DW.ref.__gxx_personality_v0
	.weak	DW.ref.__gxx_personality_v0
	.section	.data.rel.local.DW.ref.__gxx_personality_v0,"awG",@progbits,DW.ref.__gxx_personality_v0,comdat
	.align 8
	.type	DW.ref.__gxx_personality_v0, @object
	.size	DW.ref.__gxx_personality_v0, 8
DW.ref.__gxx_personality_v0:
	.quad	__gxx_personality_v0
	.ident	"GCC: (GNU) 13.2.0"
	.section	.note.GNU-stack,"",@progbits
